(dp0
S'Matches'
p1
(dp2
V47cfdd22-f969-47ee-8e2f-e16d7c90c141
p3
(i__main__
Match
p4
(dp5
S'ShardId'
p6
Vpc-na
p7
sS'GameMode'
p8
Vsquad-fpp
p9
sS'TitleId'
p10
Vbluehole-pubg
p11
sS'TelemetryId'
p12
Vb6898798-450c-11e8-b62c-0a5864669298
p13
sS'MapName'
p14
VDesert_Main
p15
sS'Participants'
p16
c__builtin__
set
p17
((lp18
(i__main__
Participant
p19
(dp20
S'Stats'
p21
(dp22
VwinPointsDelta
p23
F-9.411595
sVwinPlace
p24
I26
sVwalkDistance
p25
F144.763336
sVplayerId
p26
Vaccount.9c0a1662568341d0a776b39effc51696
p27
sVwinPoints
p28
I1001
sVheals
p29
I0
sVlastWinPoints
p30
I0
sVDBNOs
p31
I1
sVmostDamage
p32
I0
sVtimeSurvived
p33
I150
sVweaponsAcquired
p34
I0
sVrevives
p35
I0
sVvehicleDestroys
p36
I0
sVrideDistance
p37
I0
sVdeathType
p38
Vbyplayer
p39
sVlongestKill
p40
I13
sVkills
p41
I1
sVteamKills
p42
I0
sVlastKillPoints
p43
I0
sVkillPoints
p44
I981
sVkillPointsDelta
p45
F19.0824757
sVassists
p46
I0
sVboosts
p47
I0
sVheadshotKills
p48
I1
sVname
p49
VAngryAndy
p50
sVkillPlace
p51
I37
sVdamageDealt
p52
F131.68
sVroadKills
p53
I0
sVkillStreaks
p54
I0
ssS'Id'
p55
Vb8f211bf-504d-4644-b73b-27a9873615c8
p56
sba(i__main__
Participant
p57
(dp58
g21
(dp59
VwinPointsDelta
p60
F-3.59573054
sVwinPlace
p61
I22
sVwalkDistance
p62
F491.490051
sVplayerId
p63
Vaccount.51d25443e7ea4264a3bf95e857164eb7
p64
sVwinPoints
p65
I1000
sVheals
p66
I0
sVlastWinPoints
p67
I0
sVDBNOs
p68
I0
sVmostDamage
p69
I0
sVtimeSurvived
p70
I349
sVweaponsAcquired
p71
I0
sVrevives
p72
I0
sVvehicleDestroys
p73
I0
sVrideDistance
p74
I0
sVdeathType
p75
Vbyplayer
p76
sVlongestKill
p77
I0
sVkills
p78
I0
sVteamKills
p79
I0
sVlastKillPoints
p80
I0
sVkillPoints
p81
I1000
sVkillPointsDelta
p82
F-6.51179171
sVassists
p83
I0
sVboosts
p84
I0
sVheadshotKills
p85
I0
sVname
p86
VEpyonComet
p87
sVkillPlace
p88
I81
sVdamageDealt
p89
F68.2
sVroadKills
p90
I0
sVkillStreaks
p91
I0
ssg55
V7604aa39-ccd3-4796-9e8e-1a0d70cd70b7
p92
sba(i__main__
Participant
p93
(dp94
g21
(dp95
VwinPointsDelta
p96
F-14.9538679
sVwinPlace
p97
I28
sVwalkDistance
p98
F42.39412
sVplayerId
p99
Vaccount.2e2181fc2db240a48f9eec3cf1962b4b
p100
sVwinPoints
p101
I1122
sVheals
p102
I0
sVlastWinPoints
p103
I0
sVDBNOs
p104
I0
sVmostDamage
p105
I0
sVtimeSurvived
p106
I108
sVweaponsAcquired
p107
I0
sVrevives
p108
I0
sVvehicleDestroys
p109
I0
sVrideDistance
p110
I0
sVdeathType
p111
Vbyplayer
p112
sVlongestKill
p113
I0
sVkills
p114
I0
sVteamKills
p115
I0
sVlastKillPoints
p116
I0
sVkillPoints
p117
I1246
sVkillPointsDelta
p118
F-19.6569538
sVassists
p119
I0
sVboosts
p120
I0
sVheadshotKills
p121
I0
sVname
p122
VTheBeastlyKidd
p123
sVkillPlace
p124
I97
sVdamageDealt
p125
F78.88191
sVroadKills
p126
I0
sVkillStreaks
p127
I0
ssg55
Vf850525f-32a8-4a69-9799-9a0def334418
p128
sba(i__main__
Participant
p129
(dp130
g21
(dp131
VwinPointsDelta
p132
F8.920287
sVwinPlace
p133
I12
sVwalkDistance
p134
F2063.3313
sVplayerId
p135
Vaccount.2804a5cd660d48eaa7852f53513ee646
p136
sVwinPoints
p137
I1099
sVheals
p138
I0
sVlastWinPoints
p139
I0
sVDBNOs
p140
I0
sVmostDamage
p141
I0
sVtimeSurvived
p142
I886
sVweaponsAcquired
p143
I0
sVrevives
p144
I0
sVvehicleDestroys
p145
I0
sVrideDistance
p146
I0
sVdeathType
p147
Vbyplayer
p148
sVlongestKill
p149
I0
sVkills
p150
I0
sVteamKills
p151
I0
sVlastKillPoints
p152
I0
sVkillPoints
p153
I1109
sVkillPointsDelta
p154
F-2.37461162
sVassists
p155
I0
sVboosts
p156
I0
sVheadshotKills
p157
I0
sVname
p158
VGifrich
p159
sVkillPlace
p160
I61
sVdamageDealt
p161
F94.42076
sVroadKills
p162
I0
sVkillStreaks
p163
I0
ssg55
V0410bad0-9f02-45b3-a9a6-b17f59f03f21
p164
sba(i__main__
Participant
p165
(dp166
g21
(dp167
VwinPointsDelta
p168
F0.187602267
sVwinPlace
p169
I15
sVwalkDistance
p170
F1112.43591
sVplayerId
p171
Vaccount.6be3019d885741a580159a9eb775ddb6
p172
sVwinPoints
p173
I1228
sVheals
p174
I1
sVlastWinPoints
p175
I0
sVDBNOs
p176
I0
sVmostDamage
p177
I0
sVtimeSurvived
p178
I761
sVweaponsAcquired
p179
I0
sVrevives
p180
I0
sVvehicleDestroys
p181
I0
sVrideDistance
p182
F7298.41357
sVdeathType
p183
Vbyplayer
p184
sVlongestKill
p185
I0
sVkills
p186
I0
sVteamKills
p187
I0
sVlastKillPoints
p188
I0
sVkillPoints
p189
I1109
sVkillPointsDelta
p190
F-3.562587
sVassists
p191
I0
sVboosts
p192
I1
sVheadshotKills
p193
I0
sVname
p194
Vkryle
p195
sVkillPlace
p196
I65
sVdamageDealt
p197
F43.0830154
sVroadKills
p198
I0
sVkillStreaks
p199
I0
ssg55
Vc17cbd60-8c30-4bc6-bfad-844144107fd8
p200
sba(i__main__
Participant
p201
(dp202
g21
(dp203
VwinPointsDelta
p204
F-10.1185131
sVwinPlace
p205
I22
sVwalkDistance
p206
F456.304016
sVplayerId
p207
Vaccount.68998b161f074b3f868738fc733bd763
p208
sVwinPoints
p209
I1130
sVheals
p210
I1
sVlastWinPoints
p211
I0
sVDBNOs
p212
I0
sVmostDamage
p213
I0
sVtimeSurvived
p214
I350
sVweaponsAcquired
p215
I0
sVrevives
p216
I1
sVvehicleDestroys
p217
I0
sVrideDistance
p218
I0
sVdeathType
p219
Vbyplayer
p220
sVlongestKill
p221
I0
sVkills
p222
I0
sVteamKills
p223
I0
sVlastKillPoints
p224
I0
sVkillPoints
p225
I1069
sVkillPointsDelta
p226
F-8.55819
sVassists
p227
I0
sVboosts
p228
I1
sVheadshotKills
p229
I0
sVname
p230
VSireyn
p231
sVkillPlace
p232
I80
sVdamageDealt
p233
F42.26969
sVroadKills
p234
I0
sVkillStreaks
p235
I0
ssg55
V50c1ac6b-9ae8-4231-be51-511e68f928d3
p236
sba(i__main__
Participant
p237
(dp238
g21
(dp239
VwinPointsDelta
p240
F-6.02805328
sVwinPlace
p241
I18
sVwalkDistance
p242
F608.9246
sVplayerId
p243
Vaccount.913e3754930a431cbec0ea06cdefef47
p244
sVwinPoints
p245
I1244
sVheals
p246
I0
sVlastWinPoints
p247
I0
sVDBNOs
p248
I0
sVmostDamage
p249
I0
sVtimeSurvived
p250
I286
sVweaponsAcquired
p251
I0
sVrevives
p252
I0
sVvehicleDestroys
p253
I0
sVrideDistance
p254
I0
sVdeathType
p255
Vbyplayer
p256
sVlongestKill
p257
I0
sVkills
p258
I0
sVteamKills
p259
I0
sVlastKillPoints
p260
I0
sVkillPoints
p261
I1224
sVkillPointsDelta
p262
F-10.5442448
sVassists
p263
I0
sVboosts
p264
I0
sVheadshotKills
p265
I0
sVname
p266
Vgundog_126
p267
sVkillPlace
p268
I74
sVdamageDealt
p269
I0
sVroadKills
p270
I0
sVkillStreaks
p271
I0
ssg55
Vfb045a08-9c24-49cb-8f2e-3cafdeec4954
p272
sba(i__main__
Participant
p273
(dp274
g21
(dp275
VwinPointsDelta
p276
F123.129433
sVwinPlace
p277
I1
sVwalkDistance
p278
F4495.009
sVplayerId
p279
Vaccount.9f1f89c954104aca8d71284f1a5b3aed
p280
sVwinPoints
p281
I1136
sVheals
p282
I1
sVlastWinPoints
p283
I0
sVDBNOs
p284
I2
sVmostDamage
p285
I0
sVtimeSurvived
p286
I1807
sVweaponsAcquired
p287
I0
sVrevives
p288
I1
sVvehicleDestroys
p289
I0
sVrideDistance
p290
F1387.91553
sVdeathType
p291
Valive
p292
sVlongestKill
p293
I37
sVkills
p294
I2
sVteamKills
p295
I0
sVlastKillPoints
p296
I0
sVkillPoints
p297
I1118
sVkillPointsDelta
p298
F29.8557167
sVassists
p299
I4
sVboosts
p300
I1
sVheadshotKills
p301
I0
sVname
p302
VNefarious50
p303
sVkillPlace
p304
I12
sVdamageDealt
p305
F332.813782
sVroadKills
p306
I1
sVkillStreaks
p307
I0
ssg55
Vbbdc7279-a032-4385-aad0-adffec9df3e0
p308
sba(i__main__
Participant
p309
(dp310
g21
(dp311
VwinPointsDelta
p312
F50.59886
sVwinPlace
p313
I1
sVwalkDistance
p314
F4025.021
sVplayerId
p315
Vaccount.1b925c79f34d41c088f204325872e307
p316
sVwinPoints
p317
I1280
sVheals
p318
I1
sVlastWinPoints
p319
I0
sVDBNOs
p320
I1
sVmostDamage
p321
I0
sVtimeSurvived
p322
I1795
sVweaponsAcquired
p323
I0
sVrevives
p324
I0
sVvehicleDestroys
p325
I0
sVrideDistance
p326
I0
sVdeathType
p327
Vbyplayer
p328
sVlongestKill
p329
I93
sVkills
p330
I3
sVteamKills
p331
I0
sVlastKillPoints
p332
I0
sVkillPoints
p333
I1266
sVkillPointsDelta
p334
F31.9672546
sVassists
p335
I2
sVboosts
p336
I1
sVheadshotKills
p337
I0
sVname
p338
VRivers_Red
p339
sVkillPlace
p340
I7
sVdamageDealt
p341
F344.668335
sVroadKills
p342
I0
sVkillStreaks
p343
I0
ssg55
V82d175f8-34c1-4a17-ba86-be1080d80f6f
p344
sba(i__main__
Participant
p345
(dp346
g21
(dp347
VwinPointsDelta
p348
F7.818643
sVwinPlace
p349
I12
sVwalkDistance
p350
F2105.577
sVplayerId
p351
Vaccount.39f5364738f840efa366eaa2f3427def
p352
sVwinPoints
p353
I1131
sVheals
p354
I3
sVlastWinPoints
p355
I0
sVDBNOs
p356
I0
sVmostDamage
p357
I0
sVtimeSurvived
p358
I886
sVweaponsAcquired
p359
I0
sVrevives
p360
I0
sVvehicleDestroys
p361
I0
sVrideDistance
p362
I0
sVdeathType
p363
Vbyplayer
p364
sVlongestKill
p365
I0
sVkills
p366
I0
sVteamKills
p367
I0
sVlastKillPoints
p368
I0
sVkillPoints
p369
I1296
sVkillPointsDelta
p370
F-10.4971619
sVassists
p371
I0
sVboosts
p372
I1
sVheadshotKills
p373
I0
sVname
p374
VMrs_Wong
p375
sVkillPlace
p376
I60
sVdamageDealt
p377
I0
sVroadKills
p378
I0
sVkillStreaks
p379
I0
ssg55
V42178118-faa2-49c8-8cc4-be28d7d73e63
p380
sba(i__main__
Participant
p381
(dp382
g21
(dp383
VwinPointsDelta
p384
F-2.99352074
sVwinPlace
p385
I16
sVwalkDistance
p386
F784.610535
sVplayerId
p387
Vaccount.d6e45b78e5d5485e8629627422e2aaf7
p388
sVwinPoints
p389
I1217
sVheals
p390
I0
sVlastWinPoints
p391
I0
sVDBNOs
p392
I0
sVmostDamage
p393
I0
sVtimeSurvived
p394
I689
sVweaponsAcquired
p395
I0
sVrevives
p396
I0
sVvehicleDestroys
p397
I0
sVrideDistance
p398
F2800.175
sVdeathType
p399
Vbyplayer
p400
sVlongestKill
p401
I0
sVkills
p402
I0
sVteamKills
p403
I0
sVlastKillPoints
p404
I0
sVkillPoints
p405
I1184
sVkillPointsDelta
p406
F-9.557116
sVassists
p407
I0
sVboosts
p408
I0
sVheadshotKills
p409
I0
sVname
p410
VSniperAuric
p411
sVkillPlace
p412
I69
sVdamageDealt
p413
I0
sVroadKills
p414
I0
sVkillStreaks
p415
I0
ssg55
V8f217e0b-153f-4e1c-8738-7a586efafe03
p416
sba(i__main__
Participant
p417
(dp418
g21
(dp419
VwinPointsDelta
p420
F-11.7158222
sVwinPlace
p421
I20
sVwalkDistance
p422
F434.399231
sVplayerId
p423
Vaccount.08eebf895d444724acc3d88123539d5d
p424
sVwinPoints
p425
I1230
sVheals
p426
I0
sVlastWinPoints
p427
I0
sVDBNOs
p428
I0
sVmostDamage
p429
I0
sVtimeSurvived
p430
I373
sVweaponsAcquired
p431
I0
sVrevives
p432
I0
sVvehicleDestroys
p433
I0
sVrideDistance
p434
F1303.63269
sVdeathType
p435
Vbyplayer
p436
sVlongestKill
p437
I0
sVkills
p438
I0
sVteamKills
p439
I0
sVlastKillPoints
p440
I0
sVkillPoints
p441
I1295
sVkillPointsDelta
p442
F-17.50184
sVassists
p443
I0
sVboosts
p444
I0
sVheadshotKills
p445
I0
sVname
p446
VLargeDingDong
p447
sVkillPlace
p448
I77
sVdamageDealt
p449
F0.08767453
sVroadKills
p450
I0
sVkillStreaks
p451
I0
ssg55
Vfc920595-fe02-41ca-9381-dcea67a676d6
p452
sba(i__main__
Participant
p453
(dp454
g21
(dp455
VwinPointsDelta
p456
F-15.0163546
sVwinPlace
p457
I28
sVwalkDistance
p458
F58.7852135
sVplayerId
p459
Vaccount.c2761a064d65481e978aab17c39de536
p460
sVwinPoints
p461
I1124
sVheals
p462
I0
sVlastWinPoints
p463
I0
sVDBNOs
p464
I1
sVmostDamage
p465
I0
sVtimeSurvived
p466
I157
sVweaponsAcquired
p467
I0
sVrevives
p468
I0
sVvehicleDestroys
p469
I0
sVrideDistance
p470
I0
sVdeathType
p471
Vbyplayer
p472
sVlongestKill
p473
I0
sVkills
p474
I1
sVteamKills
p475
I0
sVlastKillPoints
p476
I0
sVkillPoints
p477
I1096
sVkillPointsDelta
p478
F11.8677006
sVassists
p479
I0
sVboosts
p480
I0
sVheadshotKills
p481
I0
sVname
p482
VFunDude1991
p483
sVkillPlace
p484
I39
sVdamageDealt
p485
I100
sVroadKills
p486
I0
sVkillStreaks
p487
I0
ssg55
V904c612c-16d8-40b2-8cac-23d5feda73e5
p488
sba(i__main__
Participant
p489
(dp490
g21
(dp491
VwinPointsDelta
p492
F-16.200613
sVwinPlace
p493
I20
sVwalkDistance
p494
F76.98628
sVplayerId
p495
Vaccount.c90d03d924314f55adf9ecba32cae9ae
p496
sVwinPoints
p497
I1311
sVheals
p498
I0
sVlastWinPoints
p499
I0
sVDBNOs
p500
I0
sVmostDamage
p501
I0
sVtimeSurvived
p502
I170
sVweaponsAcquired
p503
I0
sVrevives
p504
I0
sVvehicleDestroys
p505
I0
sVrideDistance
p506
I0
sVdeathType
p507
Vbyplayer
p508
sVlongestKill
p509
I0
sVkills
p510
I0
sVteamKills
p511
I0
sVlastKillPoints
p512
I0
sVkillPoints
p513
I1451
sVkillPointsDelta
p514
F-23.0903111
sVassists
p515
I0
sVboosts
p516
I0
sVheadshotKills
p517
I0
sVname
p518
VInsanityOo
p519
sVkillPlace
p520
I78
sVdamageDealt
p521
I0
sVroadKills
p522
I0
sVkillStreaks
p523
I0
ssg55
V4e0856e7-a2c9-4985-a35e-a2a7ff50d093
p524
sba(i__main__
Participant
p525
(dp526
g21
(dp527
VwinPointsDelta
p528
F42.70807
sVwinPlace
p529
I1
sVwalkDistance
p530
F4089.68213
sVplayerId
p531
Vaccount.df2d8e7990d54b128aed7708f3604776
p532
sVwinPoints
p533
I1253
sVheals
p534
I6
sVlastWinPoints
p535
I0
sVDBNOs
p536
I4
sVmostDamage
p537
I0
sVtimeSurvived
p538
I1807
sVweaponsAcquired
p539
I0
sVrevives
p540
I0
sVvehicleDestroys
p541
I0
sVrideDistance
p542
F242.471008
sVdeathType
p543
Valive
p544
sVlongestKill
p545
I473
sVkills
p546
I6
sVteamKills
p547
I0
sVlastKillPoints
p548
I0
sVkillPoints
p549
I1199
sVkillPointsDelta
p550
F61.103508
sVassists
p551
I1
sVboosts
p552
I2
sVheadshotKills
p553
I2
sVname
p554
VChaninway
p555
sVkillPlace
p556
I2
sVdamageDealt
p557
F471.421051
sVroadKills
p558
I0
sVkillStreaks
p559
I0
ssg55
V1af27b69-afe3-4bae-824b-5cb8350e3cdd
p560
sba(i__main__
Participant
p561
(dp562
g21
(dp563
VwinPointsDelta
p564
F11.61935
sVwinPlace
p565
I14
sVwalkDistance
p566
F1594.75635
sVplayerId
p567
Vaccount.42cf33eac075423f95bed1257e2ed6ab
p568
sVwinPoints
p569
I1019
sVheals
p570
I0
sVlastWinPoints
p571
I0
sVDBNOs
p572
I0
sVmostDamage
p573
I0
sVtimeSurvived
p574
I833
sVweaponsAcquired
p575
I0
sVrevives
p576
I0
sVvehicleDestroys
p577
I0
sVrideDistance
p578
I0
sVdeathType
p579
Vbyplayer
p580
sVlongestKill
p581
I0
sVkills
p582
I0
sVteamKills
p583
I0
sVlastKillPoints
p584
I0
sVkillPoints
p585
I987
sVkillPointsDelta
p586
F2.49265766
sVassists
p587
I0
sVboosts
p588
I0
sVheadshotKills
p589
I0
sVname
p590
VKissMyChancla
p591
sVkillPlace
p592
I63
sVdamageDealt
p593
I0
sVroadKills
p594
I0
sVkillStreaks
p595
I0
ssg55
Vc3b7b971-b1b3-4d77-bb29-491837d7fc8a
p596
sba(i__main__
Participant
p597
(dp598
g21
(dp599
VwinPointsDelta
p600
F25.3111038
sVwinPlace
p601
I5
sVwalkDistance
p602
F4457.46045
sVplayerId
p603
Vaccount.9ae09e73949040d589691983a6e178ad
p604
sVwinPoints
p605
I1190
sVheals
p606
I1
sVlastWinPoints
p607
I0
sVDBNOs
p608
I1
sVmostDamage
p609
I0
sVtimeSurvived
p610
I1618
sVweaponsAcquired
p611
I0
sVrevives
p612
I0
sVvehicleDestroys
p613
I0
sVrideDistance
p614
I0
sVdeathType
p615
Vbyplayer
p616
sVlongestKill
p617
I2
sVkills
p618
I1
sVteamKills
p619
I0
sVlastKillPoints
p620
I0
sVkillPoints
p621
I1120
sVkillPointsDelta
p622
F26.0010033
sVassists
p623
I0
sVboosts
p624
I0
sVheadshotKills
p625
I0
sVname
p626
VMicromonics
p627
sVkillPlace
p628
I19
sVdamageDealt
p629
F99.99999
sVroadKills
p630
I0
sVkillStreaks
p631
I0
ssg55
V30ade223-2042-4e48-abb9-2ef27f403326
p632
sba(i__main__
Participant
p633
(dp634
g21
(dp635
VwinPointsDelta
p636
F9.86024
sVwinPlace
p637
I7
sVwalkDistance
p638
F2267.73584
sVplayerId
p639
Vaccount.60d816179619473cbccc809a8a5c23e9
p640
sVwinPoints
p641
I1332
sVheals
p642
I3
sVlastWinPoints
p643
I0
sVDBNOs
p644
I1
sVmostDamage
p645
I0
sVtimeSurvived
p646
I1456
sVweaponsAcquired
p647
I0
sVrevives
p648
I0
sVvehicleDestroys
p649
I0
sVrideDistance
p650
F3350.6897
sVdeathType
p651
Vbyplayer
p652
sVlongestKill
p653
I36
sVkills
p654
I1
sVteamKills
p655
I0
sVlastKillPoints
p656
I0
sVkillPoints
p657
I1345
sVkillPointsDelta
p658
F12.7744074
sVassists
p659
I0
sVboosts
p660
I1
sVheadshotKills
p661
I0
sVname
p662
VRavenKlaw
p663
sVkillPlace
p664
I21
sVdamageDealt
p665
F139.514
sVroadKills
p666
I0
sVkillStreaks
p667
I0
ssg55
V295573dd-d772-4836-b3ce-5179f0bb84c6
p668
sba(i__main__
Participant
p669
(dp670
g21
(dp671
VwinPointsDelta
p672
F17.7092266
sVwinPlace
p673
I11
sVwalkDistance
p674
F1689.44519
sVplayerId
p675
Vaccount.a252dc2586e34b9092233b72cad1e15b
p676
sVwinPoints
p677
I1000
sVheals
p678
I1
sVlastWinPoints
p679
I0
sVDBNOs
p680
I0
sVmostDamage
p681
I0
sVtimeSurvived
p682
I1089
sVweaponsAcquired
p683
I0
sVrevives
p684
I0
sVvehicleDestroys
p685
I0
sVrideDistance
p686
I0
sVdeathType
p687
Vbyplayer
p688
sVlongestKill
p689
I0
sVkills
p690
I0
sVteamKills
p691
I0
sVlastKillPoints
p692
I0
sVkillPoints
p693
I1000
sVkillPointsDelta
p694
F3.81643319
sVassists
p695
I0
sVboosts
p696
I0
sVheadshotKills
p697
I0
sVname
p698
VMG_Exec
p699
sVkillPlace
p700
I59
sVdamageDealt
p701
I0
sVroadKills
p702
I0
sVkillStreaks
p703
I0
ssg55
V47333c72-4b28-4590-82c3-a0acbbf00764
p704
sba(i__main__
Participant
p705
(dp706
g21
(dp707
VwinPointsDelta
p708
F26.0856361
sVwinPlace
p709
I4
sVwalkDistance
p710
F2054.027
sVplayerId
p711
Vaccount.d7bf7bc3eeb04af599731d15c347de2a
p712
sVwinPoints
p713
I1183
sVheals
p714
I8
sVlastWinPoints
p715
I0
sVDBNOs
p716
I0
sVmostDamage
p717
I0
sVtimeSurvived
p718
I1443
sVweaponsAcquired
p719
I0
sVrevives
p720
I0
sVvehicleDestroys
p721
I0
sVrideDistance
p722
F8911.711
sVdeathType
p723
Vbyplayer
p724
sVlongestKill
p725
I158
sVkills
p726
I1
sVteamKills
p727
I0
sVlastKillPoints
p728
I0
sVkillPoints
p729
I1252
sVkillPointsDelta
p730
F18.4992657
sVassists
p731
I0
sVboosts
p732
I0
sVheadshotKills
p733
I1
sVname
p734
Vmars_gradivus
p735
sVkillPlace
p736
I17
sVdamageDealt
p737
F212.962021
sVroadKills
p738
I0
sVkillStreaks
p739
I0
ssg55
V02c56b28-fdb5-4de6-a035-2e5a001c899d
p740
sba(i__main__
Participant
p741
(dp742
g21
(dp743
VwinPointsDelta
p744
F-11.5668421
sVwinPlace
p745
I28
sVwalkDistance
p746
F54.1879845
sVplayerId
p747
Vaccount.9b6d332bf8c84bf69d4a7491fb970e38
p748
sVwinPoints
p749
I1000
sVheals
p750
I1
sVlastWinPoints
p751
I0
sVDBNOs
p752
I1
sVmostDamage
p753
I0
sVtimeSurvived
p754
I137
sVweaponsAcquired
p755
I0
sVrevives
p756
I0
sVvehicleDestroys
p757
I0
sVrideDistance
p758
I0
sVdeathType
p759
Vbyplayer
p760
sVlongestKill
p761
I2
sVkills
p762
I1
sVteamKills
p763
I0
sVlastKillPoints
p764
I0
sVkillPoints
p765
I1000
sVkillPointsDelta
p766
F15.9122438
sVassists
p767
I0
sVboosts
p768
I0
sVheadshotKills
p769
I1
sVname
p770
Vzmxhj
p771
sVkillPlace
p772
I40
sVdamageDealt
p773
F99.99999
sVroadKills
p774
I0
sVkillStreaks
p775
I0
ssg55
V774501b9-07d9-4b1e-891a-87eeb0a9b1ea
p776
sba(i__main__
Participant
p777
(dp778
g21
(dp779
VwinPointsDelta
p780
F-16.01118
sVwinPlace
p781
I24
sVwalkDistance
p782
F299.0986
sVplayerId
p783
Vaccount.f17437f3824b42328051ddd9f6cb1585
p784
sVwinPoints
p785
I1213
sVheals
p786
I0
sVlastWinPoints
p787
I0
sVDBNOs
p788
I0
sVmostDamage
p789
I0
sVtimeSurvived
p790
I306
sVweaponsAcquired
p791
I0
sVrevives
p792
I0
sVvehicleDestroys
p793
I0
sVrideDistance
p794
I0
sVdeathType
p795
Vbyplayer
p796
sVlongestKill
p797
I0
sVkills
p798
I0
sVteamKills
p799
I0
sVlastKillPoints
p800
I0
sVkillPoints
p801
I1201
sVkillPointsDelta
p802
F-15.7653046
sVassists
p803
I0
sVboosts
p804
I0
sVheadshotKills
p805
I0
sVname
p806
VxCrownclownx
p807
sVkillPlace
p808
I87
sVdamageDealt
p809
I0
sVroadKills
p810
I0
sVkillStreaks
p811
I0
ssg55
Vf78fe48b-98b8-4db8-b7cb-0b88adfe3594
p812
sba(i__main__
Participant
p813
(dp814
g21
(dp815
VwinPointsDelta
p816
F59.06592
sVwinPlace
p817
I2
sVwalkDistance
p818
F4900.756
sVplayerId
p819
Vaccount.63e6bc47c8624645867bb671c9a99566
p820
sVwinPoints
p821
I1000
sVheals
p822
I1
sVlastWinPoints
p823
I0
sVDBNOs
p824
I4
sVmostDamage
p825
I0
sVtimeSurvived
p826
I1805
sVweaponsAcquired
p827
I0
sVrevives
p828
I0
sVvehicleDestroys
p829
I0
sVrideDistance
p830
I0
sVdeathType
p831
Vbyplayer
p832
sVlongestKill
p833
I254
sVkills
p834
I5
sVteamKills
p835
I0
sVlastKillPoints
p836
I0
sVkillPoints
p837
I1000
sVkillPointsDelta
p838
F71.38002
sVassists
p839
I4
sVboosts
p840
I4
sVheadshotKills
p841
I2
sVname
p842
VSw11tch
p843
sVkillPlace
p844
I3
sVdamageDealt
p845
F549.3266
sVroadKills
p846
I0
sVkillStreaks
p847
I0
ssg55
V48947dc1-6df0-4824-ad15-3c9edd6083fd
p848
sba(i__main__
Participant
p849
(dp850
g21
(dp851
VwinPointsDelta
p852
F-10.2026224
sVwinPlace
p853
I22
sVwalkDistance
p854
F804.7738
sVplayerId
p855
Vaccount.fe5fcc43f3534baa82d62307b81dd173
p856
sVwinPoints
p857
I1152
sVheals
p858
I0
sVlastWinPoints
p859
I0
sVDBNOs
p860
I0
sVmostDamage
p861
I0
sVtimeSurvived
p862
I297
sVweaponsAcquired
p863
I0
sVrevives
p864
I0
sVvehicleDestroys
p865
I0
sVrideDistance
p866
I0
sVdeathType
p867
Vbyplayer
p868
sVlongestKill
p869
I0
sVkills
p870
I0
sVteamKills
p871
I0
sVlastKillPoints
p872
I0
sVkillPoints
p873
I1167
sVkillPointsDelta
p874
F-12.9513855
sVassists
p875
I0
sVboosts
p876
I0
sVheadshotKills
p877
I0
sVname
p878
VCurlyGangster
p879
sVkillPlace
p880
I82
sVdamageDealt
p881
F22.05
sVroadKills
p882
I0
sVkillStreaks
p883
I0
ssg55
V27bd22cf-8939-4ea8-80a9-af25037580d9
p884
sba(i__main__
Participant
p885
(dp886
g21
(dp887
VwinPointsDelta
p888
F7.22437048
sVwinPlace
p889
I8
sVwalkDistance
p890
F2636.62622
sVplayerId
p891
Vaccount.2d7286b03fa34b9189f1d418f1555ada
p892
sVwinPoints
p893
I1338
sVheals
p894
I3
sVlastWinPoints
p895
I0
sVDBNOs
p896
I2
sVmostDamage
p897
I0
sVtimeSurvived
p898
I1500
sVweaponsAcquired
p899
I0
sVrevives
p900
I0
sVvehicleDestroys
p901
I0
sVrideDistance
p902
F5329.677
sVdeathType
p903
Vbyplayer
p904
sVlongestKill
p905
I55
sVkills
p906
I2
sVteamKills
p907
I0
sVlastKillPoints
p908
I0
sVkillPoints
p909
I1292
sVkillPointsDelta
p910
F20.3708344
sVassists
p911
I0
sVboosts
p912
I3
sVheadshotKills
p913
I1
sVname
p914
VBadBrenton
p915
sVkillPlace
p916
I13
sVdamageDealt
p917
F323.679871
sVroadKills
p918
I0
sVkillStreaks
p919
I0
ssg55
Ve7e3279c-a939-4c29-87a2-e315149802c5
p920
sba(i__main__
Participant
p921
(dp922
g21
(dp923
VwinPointsDelta
p924
F-10.3207684
sVwinPlace
p925
I24
sVwalkDistance
p926
F417.354126
sVplayerId
p927
Vaccount.098093c9601741cc8aae6daca2ca2000
p928
sVwinPoints
p929
I1053
sVheals
p930
I0
sVlastWinPoints
p931
I0
sVDBNOs
p932
I1
sVmostDamage
p933
I0
sVtimeSurvived
p934
I306
sVweaponsAcquired
p935
I0
sVrevives
p936
I0
sVvehicleDestroys
p937
I0
sVrideDistance
p938
I0
sVdeathType
p939
Vbyplayer
p940
sVlongestKill
p941
I5
sVkills
p942
I1
sVteamKills
p943
I0
sVlastKillPoints
p944
I0
sVkillPoints
p945
I1052
sVkillPointsDelta
p946
F13.9755583
sVassists
p947
I0
sVboosts
p948
I0
sVheadshotKills
p949
I0
sVname
p950
VBabyicejr
p951
sVkillPlace
p952
I36
sVdamageDealt
p953
I100
sVroadKills
p954
I0
sVkillStreaks
p955
I0
ssg55
Va56511f9-0db4-4779-a346-c79fff9cf991
p956
sba(i__main__
Participant
p957
(dp958
g21
(dp959
VwinPointsDelta
p960
F-14.5540495
sVwinPlace
p961
I19
sVwalkDistance
p962
F736.74585
sVplayerId
p963
Vaccount.49cfcb50c51f48168c079fefb9cac31b
p964
sVwinPoints
p965
I1331
sVheals
p966
I0
sVlastWinPoints
p967
I0
sVDBNOs
p968
I0
sVmostDamage
p969
I0
sVtimeSurvived
p970
I485
sVweaponsAcquired
p971
I0
sVrevives
p972
I0
sVvehicleDestroys
p973
I0
sVrideDistance
p974
I0
sVdeathType
p975
Vbyplayer
p976
sVlongestKill
p977
I81
sVkills
p978
I1
sVteamKills
p979
I0
sVlastKillPoints
p980
I0
sVkillPoints
p981
I1295
sVkillPointsDelta
p982
F5.88564062
sVassists
p983
I0
sVboosts
p984
I0
sVheadshotKills
p985
I0
sVname
p986
VSmackGoneWild
p987
sVkillPlace
p988
I31
sVdamageDealt
p989
F220.478088
sVroadKills
p990
I0
sVkillStreaks
p991
I0
ssg55
V5789d567-84cd-40d9-907a-64c5051b8b1a
p992
sba(i__main__
Participant
p993
(dp994
g21
(dp995
VwinPointsDelta
p996
F-17.7692986
sVwinPlace
p997
I20
sVwalkDistance
p998
F881.6918
sVplayerId
p999
Vaccount.f3e18ee0688b436abf1ff231c0013e25
p1000
sVwinPoints
p1001
I1365
sVheals
p1002
I0
sVlastWinPoints
p1003
I0
sVDBNOs
p1004
I1
sVmostDamage
p1005
I0
sVtimeSurvived
p1006
I438
sVweaponsAcquired
p1007
I0
sVrevives
p1008
I0
sVvehicleDestroys
p1009
I0
sVrideDistance
p1010
I0
sVdeathType
p1011
Vsuicide
p1012
sVlongestKill
p1013
I15
sVkills
p1014
I1
sVteamKills
p1015
I1
sVlastKillPoints
p1016
I0
sVkillPoints
p1017
I1394
sVkillPointsDelta
p1018
F-1.45422971
sVassists
p1019
I0
sVboosts
p1020
I0
sVheadshotKills
p1021
I0
sVname
p1022
VTheAverageAtomTV
p1023
sVkillPlace
p1024
I33
sVdamageDealt
p1025
I200
sVroadKills
p1026
I0
sVkillStreaks
p1027
I0
ssg55
V278eef5b-274b-4a19-9a3c-5fdb6f24ce36
p1028
sba(i__main__
Participant
p1029
(dp1030
g21
(dp1031
VwinPointsDelta
p1032
F-12.634201
sVwinPlace
p1033
I19
sVwalkDistance
p1034
F1060.29651
sVplayerId
p1035
Vaccount.512cb9e903cf430f8645d8a3d7c59faf
p1036
sVwinPoints
p1037
I1289
sVheals
p1038
I1
sVlastWinPoints
p1039
I0
sVDBNOs
p1040
I1
sVmostDamage
p1041
I0
sVtimeSurvived
p1042
I485
sVweaponsAcquired
p1043
I0
sVrevives
p1044
I0
sVvehicleDestroys
p1045
I0
sVrideDistance
p1046
I0
sVdeathType
p1047
Vbyplayer
p1048
sVlongestKill
p1049
I10
sVkills
p1050
I1
sVteamKills
p1051
I0
sVlastKillPoints
p1052
I0
sVkillPoints
p1053
I1291
sVkillPointsDelta
p1054
F4.58750153
sVassists
p1055
I0
sVboosts
p1056
I0
sVheadshotKills
p1057
I0
sVname
p1058
VAcove
p1059
sVkillPlace
p1060
I32
sVdamageDealt
p1061
F174.874161
sVroadKills
p1062
I0
sVkillStreaks
p1063
I0
ssg55
V0770a01b-23be-48fb-a0ce-aa27d022bc49
p1064
sba(i__main__
Participant
p1065
(dp1066
g21
(dp1067
VwinPointsDelta
p1068
F8.089921
sVwinPlace
p1069
I10
sVwalkDistance
p1070
F1566.88831
sVplayerId
p1071
Vaccount.d48624c226874082b207bb64f581b710
p1072
sVwinPoints
p1073
I1177
sVheals
p1074
I0
sVlastWinPoints
p1075
I0
sVDBNOs
p1076
I0
sVmostDamage
p1077
I0
sVtimeSurvived
p1078
I722
sVweaponsAcquired
p1079
I0
sVrevives
p1080
I0
sVvehicleDestroys
p1081
I0
sVrideDistance
p1082
I0
sVdeathType
p1083
Vbyplayer
p1084
sVlongestKill
p1085
I0
sVkills
p1086
I0
sVteamKills
p1087
I0
sVlastKillPoints
p1088
I0
sVkillPoints
p1089
I1336
sVkillPointsDelta
p1090
F-12.0019045
sVassists
p1091
I0
sVboosts
p1092
I0
sVheadshotKills
p1093
I0
sVname
p1094
VAssinfurr
p1095
sVkillPlace
p1096
I58
sVdamageDealt
p1097
I0
sVroadKills
p1098
I0
sVkillStreaks
p1099
I0
ssg55
V618a0e39-c6bd-4db3-bb6f-68473c7f364b
p1100
sba(i__main__
Participant
p1101
(dp1102
g21
(dp1103
VwinPointsDelta
p1104
F-7.131156
sVwinPlace
p1105
I23
sVwalkDistance
p1106
F508.394775
sVplayerId
p1107
Vaccount.fac5b9cfb89643fd83fbef0a11a93d33
p1108
sVwinPoints
p1109
I1031
sVheals
p1110
I0
sVlastWinPoints
p1111
I0
sVDBNOs
p1112
I0
sVmostDamage
p1113
I0
sVtimeSurvived
p1114
I348
sVweaponsAcquired
p1115
I0
sVrevives
p1116
I0
sVvehicleDestroys
p1117
I0
sVrideDistance
p1118
I0
sVdeathType
p1119
Vbyplayer
p1120
sVlongestKill
p1121
I0
sVkills
p1122
I0
sVteamKills
p1123
I0
sVlastKillPoints
p1124
I0
sVkillPoints
p1125
I1027
sVkillPointsDelta
p1126
F-8.137492
sVassists
p1127
I0
sVboosts
p1128
I0
sVheadshotKills
p1129
I0
sVname
p1130
VNoosher_Prime
p1131
sVkillPlace
p1132
I83
sVdamageDealt
p1133
F101.579712
sVroadKills
p1134
I0
sVkillStreaks
p1135
I0
ssg55
V2952cec5-adc9-48eb-91b7-7397c87c98be
p1136
sba(i__main__
Participant
p1137
(dp1138
g21
(dp1139
VwinPointsDelta
p1140
I0
sVwinPlace
p1141
I28
sVwalkDistance
p1142
F20.4794464
sVplayerId
p1143
Vaccount.698f4b9f8efa41d4a74e0a6917830e9f
p1144
sVwinPoints
p1145
I1189
sVheals
p1146
I0
sVlastWinPoints
p1147
I0
sVDBNOs
p1148
I0
sVmostDamage
p1149
I0
sVtimeSurvived
p1150
I97
sVweaponsAcquired
p1151
I0
sVrevives
p1152
I0
sVvehicleDestroys
p1153
I0
sVrideDistance
p1154
I0
sVdeathType
p1155
Vbyplayer
p1156
sVlongestKill
p1157
I0
sVkills
p1158
I0
sVteamKills
p1159
I0
sVlastKillPoints
p1160
I0
sVkillPoints
p1161
I1467
sVkillPointsDelta
p1162
I0
sVassists
p1163
I0
sVboosts
p1164
I0
sVheadshotKills
p1165
I0
sVname
p1166
VUltraLightBeeb
p1167
sVkillPlace
p1168
I98
sVdamageDealt
p1169
I0
sVroadKills
p1170
I0
sVkillStreaks
p1171
I0
ssg55
Vaac283dd-e399-4c15-a694-05dca0a980ae
p1172
sba(i__main__
Participant
p1173
(dp1174
g21
(dp1175
VwinPointsDelta
p1176
F7.381785
sVwinPlace
p1177
I8
sVwalkDistance
p1178
F3219.241
sVplayerId
p1179
Vaccount.da931156f97e408dbff2435b3ee6d5fc
p1180
sVwinPoints
p1181
I1311
sVheals
p1182
I6
sVlastWinPoints
p1183
I0
sVDBNOs
p1184
I0
sVmostDamage
p1185
I0
sVtimeSurvived
p1186
I1392
sVweaponsAcquired
p1187
I0
sVrevives
p1188
I0
sVvehicleDestroys
p1189
I0
sVrideDistance
p1190
F4104.838
sVdeathType
p1191
Vbyplayer
p1192
sVlongestKill
p1193
I0
sVkills
p1194
I0
sVteamKills
p1195
I0
sVlastKillPoints
p1196
I0
sVkillPoints
p1197
I1191
sVkillPointsDelta
p1198
F-1.87069476
sVassists
p1199
I0
sVboosts
p1200
I0
sVheadshotKills
p1201
I0
sVname
p1202
VJ-O-E-P
p1203
sVkillPlace
p1204
I51
sVdamageDealt
p1205
F11.7070532
sVroadKills
p1206
I0
sVkillStreaks
p1207
I0
ssg55
V73aed084-2033-45a2-9ecb-4685e09aa75f
p1208
sba(i__main__
Participant
p1209
(dp1210
g21
(dp1211
VwinPointsDelta
p1212
F16.9998283
sVwinPlace
p1213
I11
sVwalkDistance
p1214
F1967.12927
sVplayerId
p1215
Vaccount.ccc73fd75d1243fc8ef5c361cc0362d1
p1216
sVwinPoints
p1217
I1000
sVheals
p1218
I1
sVlastWinPoints
p1219
I0
sVDBNOs
p1220
I1
sVmostDamage
p1221
I0
sVtimeSurvived
p1222
I1089
sVweaponsAcquired
p1223
I0
sVrevives
p1224
I0
sVvehicleDestroys
p1225
I0
sVrideDistance
p1226
I0
sVdeathType
p1227
Vbyplayer
p1228
sVlongestKill
p1229
I26
sVkills
p1230
I1
sVteamKills
p1231
I0
sVlastKillPoints
p1232
I0
sVkillPoints
p1233
I1000
sVkillPointsDelta
p1234
F27.1020279
sVassists
p1235
I1
sVboosts
p1236
I1
sVheadshotKills
p1237
I1
sVname
p1238
VDrDoz
p1239
sVkillPlace
p1240
I26
sVdamageDealt
p1241
F285.454865
sVroadKills
p1242
I0
sVkillStreaks
p1243
I0
ssg55
V38ea1db7-6296-4d02-b18e-69c8a11a8c7a
p1244
sba(i__main__
Participant
p1245
(dp1246
g21
(dp1247
VwinPointsDelta
p1248
F13.0033264
sVwinPlace
p1249
I9
sVwalkDistance
p1250
F4074.49878
sVplayerId
p1251
Vaccount.d154c37b46aa4c51b325d8bbf9eb28a5
p1252
sVwinPoints
p1253
I1180
sVheals
p1254
I1
sVlastWinPoints
p1255
I0
sVDBNOs
p1256
I2
sVmostDamage
p1257
I0
sVtimeSurvived
p1258
I1408
sVweaponsAcquired
p1259
I0
sVrevives
p1260
I0
sVvehicleDestroys
p1261
I0
sVrideDistance
p1262
F2201.0813
sVdeathType
p1263
Vbyplayer
p1264
sVlongestKill
p1265
I157
sVkills
p1266
I1
sVteamKills
p1267
I0
sVlastKillPoints
p1268
I0
sVkillPoints
p1269
I1266
sVkillPointsDelta
p1270
F13.6266594
sVassists
p1271
I1
sVboosts
p1272
I0
sVheadshotKills
p1273
I0
sVname
p1274
VPB_Seabass
p1275
sVkillPlace
p1276
I22
sVdamageDealt
p1277
F176.4782
sVroadKills
p1278
I0
sVkillStreaks
p1279
I0
ssg55
Ve31a7683-7ad8-4ef9-b698-221dd5f5fb21
p1280
sba(i__main__
Participant
p1281
(dp1282
g21
(dp1283
VwinPointsDelta
p1284
F6.23857
sVwinPlace
p1285
I6
sVwalkDistance
p1286
F2285.35
sVplayerId
p1287
Vaccount.f22e74c8baed4639bfea703fbb907998
p1288
sVwinPoints
p1289
I1391
sVheals
p1290
I5
sVlastWinPoints
p1291
I0
sVDBNOs
p1292
I1
sVmostDamage
p1293
I0
sVtimeSurvived
p1294
I1201
sVweaponsAcquired
p1295
I0
sVrevives
p1296
I0
sVvehicleDestroys
p1297
I0
sVrideDistance
p1298
F4035.34
sVdeathType
p1299
Vbyplayer
p1300
sVlongestKill
p1301
I14
sVkills
p1302
I1
sVteamKills
p1303
I0
sVlastKillPoints
p1304
I0
sVkillPoints
p1305
I1424
sVkillPointsDelta
p1306
F5.789227
sVassists
p1307
I0
sVboosts
p1308
I5
sVheadshotKills
p1309
I0
sVname
p1310
VTheJuLs
p1311
sVkillPlace
p1312
I20
sVdamageDealt
p1313
F194.638458
sVroadKills
p1314
I0
sVkillStreaks
p1315
I0
ssg55
Vf8d8391b-56f9-44e3-a86d-c610d94390ca
p1316
sba(i__main__
Participant
p1317
(dp1318
g21
(dp1319
VwinPointsDelta
p1320
F16.2282963
sVwinPlace
p1321
I11
sVwalkDistance
p1322
F1881.951
sVplayerId
p1323
Vaccount.7eab03ced741477cab0fa1e3204af2f7
p1324
sVwinPoints
p1325
I1000
sVheals
p1326
I0
sVlastWinPoints
p1327
I0
sVDBNOs
p1328
I1
sVmostDamage
p1329
I0
sVtimeSurvived
p1330
I1089
sVweaponsAcquired
p1331
I0
sVrevives
p1332
I0
sVvehicleDestroys
p1333
I0
sVrideDistance
p1334
F188.716782
sVdeathType
p1335
Vbyplayer
p1336
sVlongestKill
p1337
I30
sVkills
p1338
I1
sVteamKills
p1339
I0
sVlastKillPoints
p1340
I0
sVkillPoints
p1341
I1000
sVkillPointsDelta
p1342
F27.9289513
sVassists
p1343
I1
sVboosts
p1344
I1
sVheadshotKills
p1345
I0
sVname
p1346
VOhannes69
p1347
sVkillPlace
p1348
I25
sVdamageDealt
p1349
F29.2466412
sVroadKills
p1350
I0
sVkillStreaks
p1351
I0
ssg55
V5e028716-addc-4f7e-a13f-9d63abfebd44
p1352
sba(i__main__
Participant
p1353
(dp1354
g21
(dp1355
VwinPointsDelta
p1356
F22.7220612
sVwinPlace
p1357
I4
sVwalkDistance
p1358
F2306.90869
sVplayerId
p1359
Vaccount.713375a4eaba4f7b934b2e88b5d9dd3f
p1360
sVwinPoints
p1361
I1219
sVheals
p1362
I12
sVlastWinPoints
p1363
I0
sVDBNOs
p1364
I2
sVmostDamage
p1365
I0
sVtimeSurvived
p1366
I1662
sVweaponsAcquired
p1367
I0
sVrevives
p1368
I0
sVvehicleDestroys
p1369
I0
sVrideDistance
p1370
F8800.87
sVdeathType
p1371
Vbyplayer
p1372
sVlongestKill
p1373
I0
sVkills
p1374
I0
sVteamKills
p1375
I0
sVlastKillPoints
p1376
I0
sVkillPoints
p1377
I1188
sVkillPointsDelta
p1378
F2.32092285
sVassists
p1379
I1
sVboosts
p1380
I4
sVheadshotKills
p1381
I0
sVname
p1382
VShadowthr0ne
p1383
sVkillPlace
p1384
I45
sVdamageDealt
p1385
F265.611572
sVroadKills
p1386
I0
sVkillStreaks
p1387
I0
ssg55
V73c3e3e1-f045-4301-b7bb-cfd820d107c3
p1388
sba(i__main__
Participant
p1389
(dp1390
g21
(dp1391
VwinPointsDelta
p1392
F19.15878
sVwinPlace
p1393
I4
sVwalkDistance
p1394
F2216.8396
sVplayerId
p1395
Vaccount.d3638e5ee81b4641ba8593d7aa2b03e2
p1396
sVwinPoints
p1397
I1259
sVheals
p1398
I9
sVlastWinPoints
p1399
I0
sVDBNOs
p1400
I1
sVmostDamage
p1401
I0
sVtimeSurvived
p1402
I1429
sVweaponsAcquired
p1403
I0
sVrevives
p1404
I0
sVvehicleDestroys
p1405
I0
sVrideDistance
p1406
F7457.64648
sVdeathType
p1407
Vbyplayer
p1408
sVlongestKill
p1409
I5
sVkills
p1410
I1
sVteamKills
p1411
I0
sVlastKillPoints
p1412
I0
sVkillPoints
p1413
I1163
sVkillPointsDelta
p1414
F23.5197411
sVassists
p1415
I0
sVboosts
p1416
I2
sVheadshotKills
p1417
I1
sVname
p1418
VBridge_Four
p1419
sVkillPlace
p1420
I18
sVdamageDealt
p1421
F152.379959
sVroadKills
p1422
I0
sVkillStreaks
p1423
I0
ssg55
Va35258b4-5478-4694-8971-d5fe6641ec74
p1424
sba(i__main__
Participant
p1425
(dp1426
g21
(dp1427
VwinPointsDelta
p1428
F-9.097613
sVwinPlace
p1429
I26
sVwalkDistance
p1430
F28.4526482
sVplayerId
p1431
Vaccount.9cb9b2af5a7c49ee90e580c0979db2de
p1432
sVwinPoints
p1433
I1001
sVheals
p1434
I0
sVlastWinPoints
p1435
I0
sVDBNOs
p1436
I0
sVmostDamage
p1437
I0
sVtimeSurvived
p1438
I118
sVweaponsAcquired
p1439
I0
sVrevives
p1440
I0
sVvehicleDestroys
p1441
I0
sVrideDistance
p1442
I0
sVdeathType
p1443
Vbyplayer
p1444
sVlongestKill
p1445
I0
sVkills
p1446
I0
sVteamKills
p1447
I0
sVlastKillPoints
p1448
I0
sVkillPoints
p1449
I1072
sVkillPointsDelta
p1450
F-12.7168646
sVassists
p1451
I0
sVboosts
p1452
I0
sVheadshotKills
p1453
I0
sVname
p1454
VJackedRamRod91
p1455
sVkillPlace
p1456
I93
sVdamageDealt
p1457
F17.3460121
sVroadKills
p1458
I0
sVkillStreaks
p1459
I0
ssg55
Vd4ea7bfb-a19c-4719-a04f-57da7eb64398
p1460
sba(i__main__
Participant
p1461
(dp1462
g21
(dp1463
VwinPointsDelta
p1464
F-0.181423232
sVwinPlace
p1465
I10
sVwalkDistance
p1466
F2836.63745
sVplayerId
p1467
Vaccount.3c3d31b8bbd64a76acf4ead4e080e88d
p1468
sVwinPoints
p1469
I1342
sVheals
p1470
I17
sVlastWinPoints
p1471
I0
sVDBNOs
p1472
I0
sVmostDamage
p1473
I0
sVtimeSurvived
p1474
I1290
sVweaponsAcquired
p1475
I0
sVrevives
p1476
I0
sVvehicleDestroys
p1477
I0
sVrideDistance
p1478
F2069.66479
sVdeathType
p1479
Vbyplayer
p1480
sVlongestKill
p1481
I29
sVkills
p1482
I1
sVteamKills
p1483
I0
sVlastKillPoints
p1484
I0
sVkillPoints
p1485
I1216
sVkillPointsDelta
p1486
F15.2401495
sVassists
p1487
I0
sVboosts
p1488
I4
sVheadshotKills
p1489
I0
sVname
p1490
Vyoitzmexy
p1491
sVkillPlace
p1492
I24
sVdamageDealt
p1493
F100.85022
sVroadKills
p1494
I0
sVkillStreaks
p1495
I0
ssg55
V0824266a-18a2-45e1-b782-aaf691bafe21
p1496
sba(i__main__
Participant
p1497
(dp1498
g21
(dp1499
VwinPointsDelta
p1500
F-8.132077
sVwinPlace
p1501
I23
sVwalkDistance
p1502
F492.432922
sVplayerId
p1503
Vaccount.10a10f9db5dd4223b4e4b5adeeebbf87
p1504
sVwinPoints
p1505
I1047
sVheals
p1506
I0
sVlastWinPoints
p1507
I0
sVDBNOs
p1508
I0
sVmostDamage
p1509
I0
sVtimeSurvived
p1510
I257
sVweaponsAcquired
p1511
I0
sVrevives
p1512
I0
sVvehicleDestroys
p1513
I0
sVrideDistance
p1514
I0
sVdeathType
p1515
Vbyplayer
p1516
sVlongestKill
p1517
I0
sVkills
p1518
I0
sVteamKills
p1519
I0
sVlastKillPoints
p1520
I0
sVkillPoints
p1521
I1125
sVkillPointsDelta
p1522
F-12.5604467
sVassists
p1523
I0
sVboosts
p1524
I0
sVheadshotKills
p1525
I0
sVname
p1526
VKlow47
p1527
sVkillPlace
p1528
I86
sVdamageDealt
p1529
I0
sVroadKills
p1530
I0
sVkillStreaks
p1531
I0
ssg55
V2a06f0c5-75c6-4ddc-b410-5880099a09c0
p1532
sba(i__main__
Participant
p1533
(dp1534
g21
(dp1535
VwinPointsDelta
p1536
F-8.851662
sVwinPlace
p1537
I16
sVwalkDistance
p1538
F645.6177
sVplayerId
p1539
Vaccount.b843ac8c3af84fb48fe216be59936143
p1540
sVwinPoints
p1541
I1358
sVheals
p1542
I0
sVlastWinPoints
p1543
I0
sVDBNOs
p1544
I0
sVmostDamage
p1545
I0
sVtimeSurvived
p1546
I689
sVweaponsAcquired
p1547
I0
sVrevives
p1548
I0
sVvehicleDestroys
p1549
I0
sVrideDistance
p1550
F2869.19775
sVdeathType
p1551
Vbyplayer
p1552
sVlongestKill
p1553
I0
sVkills
p1554
I0
sVteamKills
p1555
I0
sVlastKillPoints
p1556
I0
sVkillPoints
p1557
I1432
sVkillPointsDelta
p1558
F-18.9055557
sVassists
p1559
I2
sVboosts
p1560
I0
sVheadshotKills
p1561
I0
sVname
p1562
VRaineOfFire
p1563
sVkillPlace
p1564
I68
sVdamageDealt
p1565
F60.7199974
sVroadKills
p1566
I0
sVkillStreaks
p1567
I0
ssg55
Vcf841262-508f-4197-a9d7-1696ba69b278
p1568
sba(i__main__
Participant
p1569
(dp1570
g21
(dp1571
VwinPointsDelta
p1572
F7.24904156
sVwinPlace
p1573
I12
sVwalkDistance
p1574
F2063.94946
sVplayerId
p1575
Vaccount.58a64ce2a4c04df98457bf6ac5420b32
p1576
sVwinPoints
p1577
I1118
sVheals
p1578
I2
sVlastWinPoints
p1579
I0
sVDBNOs
p1580
I0
sVmostDamage
p1581
I0
sVtimeSurvived
p1582
I886
sVweaponsAcquired
p1583
I0
sVrevives
p1584
I0
sVvehicleDestroys
p1585
I0
sVrideDistance
p1586
I0
sVdeathType
p1587
Vbyplayer
p1588
sVlongestKill
p1589
I0
sVkills
p1590
I0
sVteamKills
p1591
I0
sVlastKillPoints
p1592
I0
sVkillPoints
p1593
I1018
sVkillPointsDelta
p1594
F0.343994439
sVassists
p1595
I0
sVboosts
p1596
I1
sVheadshotKills
p1597
I0
sVname
p1598
VViken1
p1599
sVkillPlace
p1600
I62
sVdamageDealt
p1601
F23.0023251
sVroadKills
p1602
I0
sVkillStreaks
p1603
I0
ssg55
V7ce009c5-d5ff-4945-b891-5ce1839b6f95
p1604
sba(i__main__
Participant
p1605
(dp1606
g21
(dp1607
VwinPointsDelta
p1608
F-9.361287
sVwinPlace
p1609
I20
sVwalkDistance
p1610
F234.073181
sVplayerId
p1611
Vaccount.1d5e7f49196149ac8426be143d4a9ede
p1612
sVwinPoints
p1613
I1169
sVheals
p1614
I0
sVlastWinPoints
p1615
I0
sVDBNOs
p1616
I1
sVmostDamage
p1617
I0
sVtimeSurvived
p1618
I289
sVweaponsAcquired
p1619
I0
sVrevives
p1620
I0
sVvehicleDestroys
p1621
I0
sVrideDistance
p1622
I0
sVdeathType
p1623
Vbyplayer
p1624
sVlongestKill
p1625
I8
sVkills
p1626
I1
sVteamKills
p1627
I0
sVlastKillPoints
p1628
I0
sVkillPoints
p1629
I1016
sVkillPointsDelta
p1630
F19.4981213
sVassists
p1631
I0
sVboosts
p1632
I0
sVheadshotKills
p1633
I0
sVname
p1634
VASETEK_
p1635
sVkillPlace
p1636
I34
sVdamageDealt
p1637
I100
sVroadKills
p1638
I0
sVkillStreaks
p1639
I0
ssg55
V7866613c-3046-4f68-9400-6272b9cc4778
p1640
sba(i__main__
Participant
p1641
(dp1642
g21
(dp1643
VwinPointsDelta
p1644
F5.908903
sVwinPlace
p1645
I9
sVwalkDistance
p1646
F3563.73462
sVplayerId
p1647
Vaccount.79c7079b547d4edd8852b6d9888acfde
p1648
sVwinPoints
p1649
I1307
sVheals
p1650
I2
sVlastWinPoints
p1651
I0
sVDBNOs
p1652
I1
sVmostDamage
p1653
I0
sVtimeSurvived
p1654
I1405
sVweaponsAcquired
p1655
I0
sVrevives
p1656
I1
sVvehicleDestroys
p1657
I0
sVrideDistance
p1658
F2144.80713
sVdeathType
p1659
Vbyplayer
p1660
sVlongestKill
p1661
I12
sVkills
p1662
I1
sVteamKills
p1663
I0
sVlastKillPoints
p1664
I0
sVkillPoints
p1665
I1317
sVkillPointsDelta
p1666
F9.71361351
sVassists
p1667
I0
sVboosts
p1668
I4
sVheadshotKills
p1669
I0
sVname
p1670
VmTex
p1671
sVkillPlace
p1672
I23
sVdamageDealt
p1673
F98.42868
sVroadKills
p1674
I0
sVkillStreaks
p1675
I0
ssg55
V20ad7121-0a89-4b49-b3d8-ce6ab04ad788
p1676
sba(i__main__
Participant
p1677
(dp1678
g21
(dp1679
VwinPointsDelta
p1680
F-11.3610725
sVwinPlace
p1681
I18
sVwalkDistance
p1682
F536.7464
sVplayerId
p1683
Vaccount.e5288badfec04be89db5ff927e9b9d29
p1684
sVwinPoints
p1685
I1301
sVheals
p1686
I0
sVlastWinPoints
p1687
I0
sVDBNOs
p1688
I1
sVmostDamage
p1689
I0
sVtimeSurvived
p1690
I514
sVweaponsAcquired
p1691
I0
sVrevives
p1692
I0
sVvehicleDestroys
p1693
I0
sVrideDistance
p1694
F2162.0293
sVdeathType
p1695
Vbyplayer
p1696
sVlongestKill
p1697
I1
sVkills
p1698
I1
sVteamKills
p1699
I0
sVlastKillPoints
p1700
I0
sVkillPoints
p1701
I1413
sVkillPointsDelta
p1702
F1.20456052
sVassists
p1703
I0
sVboosts
p1704
I0
sVheadshotKills
p1705
I1
sVname
p1706
VALLOFMYSNACKBARS
p1707
sVkillPlace
p1708
I29
sVdamageDealt
p1709
F105.152336
sVroadKills
p1710
I0
sVkillStreaks
p1711
I0
ssg55
V1455de65-796d-43ae-a604-52aa0e199afe
p1712
sba(i__main__
Participant
p1713
(dp1714
g21
(dp1715
VwinPointsDelta
p1716
F4.750833
sVwinPlace
p1717
I7
sVwalkDistance
p1718
F3312.203
sVplayerId
p1719
Vaccount.350bf35c0c1a4180a535a32adc051938
p1720
sVwinPoints
p1721
I1403
sVheals
p1722
I3
sVlastWinPoints
p1723
I0
sVDBNOs
p1724
I0
sVmostDamage
p1725
I0
sVtimeSurvived
p1726
I1508
sVweaponsAcquired
p1727
I0
sVrevives
p1728
I0
sVvehicleDestroys
p1729
I0
sVrideDistance
p1730
F1151.647
sVdeathType
p1731
Vbyplayer
p1732
sVlongestKill
p1733
I0
sVkills
p1734
I0
sVteamKills
p1735
I0
sVlastKillPoints
p1736
I0
sVkillPoints
p1737
I1363
sVkillPointsDelta
p1738
F-9.039185
sVassists
p1739
I1
sVboosts
p1740
I2
sVheadshotKills
p1741
I0
sVname
p1742
VLucas2544
p1743
sVkillPlace
p1744
I49
sVdamageDealt
p1745
I0
sVroadKills
p1746
I0
sVkillStreaks
p1747
I0
ssg55
V7207a6e1-71b0-4796-84e1-db841035bada
p1748
sba(i__main__
Participant
p1749
(dp1750
g21
(dp1751
VwinPointsDelta
p1752
F-15.4935455
sVwinPlace
p1753
I28
sVwalkDistance
p1754
F23.3960552
sVplayerId
p1755
Vaccount.b58749725eef49f5b78e862935418298
p1756
sVwinPoints
p1757
I1132
sVheals
p1758
I0
sVlastWinPoints
p1759
I0
sVDBNOs
p1760
I1
sVmostDamage
p1761
I0
sVtimeSurvived
p1762
I108
sVweaponsAcquired
p1763
I0
sVrevives
p1764
I0
sVvehicleDestroys
p1765
I0
sVrideDistance
p1766
I0
sVdeathType
p1767
Vbyplayer
p1768
sVlongestKill
p1769
I6
sVkills
p1770
I1
sVteamKills
p1771
I0
sVlastKillPoints
p1772
I0
sVkillPoints
p1773
I1306
sVkillPointsDelta
p1774
F-2.386393
sVassists
p1775
I0
sVboosts
p1776
I0
sVheadshotKills
p1777
I0
sVname
p1778
ViTzDavm
p1779
sVkillPlace
p1780
I42
sVdamageDealt
p1781
F22.7800064
sVroadKills
p1782
I0
sVkillStreaks
p1783
I0
ssg55
Vc44f8db9-02b1-4e73-b926-a6bfb5cb5582
p1784
sba(i__main__
Participant
p1785
(dp1786
g21
(dp1787
VwinPointsDelta
p1788
F0.507462144
sVwinPlace
p1789
I15
sVwalkDistance
p1790
F988.654358
sVplayerId
p1791
Vaccount.cc2616afdda24afd847cc7c960d950bc
p1792
sVwinPoints
p1793
I1233
sVheals
p1794
I1
sVlastWinPoints
p1795
I0
sVDBNOs
p1796
I0
sVmostDamage
p1797
I0
sVtimeSurvived
p1798
I721
sVweaponsAcquired
p1799
I0
sVrevives
p1800
I0
sVvehicleDestroys
p1801
I0
sVrideDistance
p1802
F6390.84
sVdeathType
p1803
Vbyplayer
p1804
sVlongestKill
p1805
I0
sVkills
p1806
I0
sVteamKills
p1807
I0
sVlastKillPoints
p1808
I0
sVkillPoints
p1809
I1138
sVkillPointsDelta
p1810
F-5.687058
sVassists
p1811
I0
sVboosts
p1812
I0
sVheadshotKills
p1813
I0
sVname
p1814
VDeus_exe
p1815
sVkillPlace
p1816
I67
sVdamageDealt
p1817
F43.0830154
sVroadKills
p1818
I0
sVkillStreaks
p1819
I0
ssg55
V9fcd9011-84dd-4197-8dd4-eadd1bff8ab0
p1820
sba(i__main__
Participant
p1821
(dp1822
g21
(dp1823
VwinPointsDelta
p1824
F-3.1165247
sVwinPlace
p1825
I16
sVwalkDistance
p1826
F816.431152
sVplayerId
p1827
Vaccount.fcd201fd17814f668e26de158b27c4db
p1828
sVwinPoints
p1829
I1254
sVheals
p1830
I0
sVlastWinPoints
p1831
I0
sVDBNOs
p1832
I3
sVmostDamage
p1833
I0
sVtimeSurvived
p1834
I689
sVweaponsAcquired
p1835
I0
sVrevives
p1836
I0
sVvehicleDestroys
p1837
I0
sVrideDistance
p1838
F2913.16821
sVdeathType
p1839
Vbyplayer
p1840
sVlongestKill
p1841
I68
sVkills
p1842
I3
sVteamKills
p1843
I0
sVlastKillPoints
p1844
I0
sVkillPoints
p1845
I1161
sVkillPointsDelta
p1846
F31.6827412
sVassists
p1847
I0
sVboosts
p1848
I0
sVheadshotKills
p1849
I1
sVname
p1850
VBuffed_Rival
p1851
sVkillPlace
p1852
I10
sVdamageDealt
p1853
F228.975327
sVroadKills
p1854
I0
sVkillStreaks
p1855
I0
ssg55
V8235cc86-be70-4056-8a6b-0350267884b3
p1856
sba(i__main__
Participant
p1857
(dp1858
g21
(dp1859
VwinPointsDelta
p1860
F40.809906
sVwinPlace
p1861
I2
sVwalkDistance
p1862
F4527.482
sVplayerId
p1863
Vaccount.18cc1b62384442c4b1da6c448584afb0
p1864
sVwinPoints
p1865
I1114
sVheals
p1866
I8
sVlastWinPoints
p1867
I0
sVDBNOs
p1868
I12
sVmostDamage
p1869
I0
sVtimeSurvived
p1870
I1807
sVweaponsAcquired
p1871
I0
sVrevives
p1872
I0
sVvehicleDestroys
p1873
I0
sVrideDistance
p1874
I0
sVdeathType
p1875
Vbyplayer
p1876
sVlongestKill
p1877
I341
sVkills
p1878
I13
sVteamKills
p1879
I0
sVlastKillPoints
p1880
I0
sVkillPoints
p1881
I1343
sVkillPointsDelta
p1882
F64.7900162
sVassists
p1883
I2
sVboosts
p1884
I10
sVheadshotKills
p1885
I5
sVname
p1886
VxLeinad
p1887
sVkillPlace
p1888
I1
sVdamageDealt
p1889
F1548.7135
sVroadKills
p1890
I0
sVkillStreaks
p1891
I0
ssg55
Vbd70c7ac-4647-4cd7-aa06-a9657355d6a6
p1892
sba(i__main__
Participant
p1893
(dp1894
g21
(dp1895
VwinPointsDelta
p1896
F0.984102547
sVwinPlace
p1897
I10
sVwalkDistance
p1898
F2332.034
sVplayerId
p1899
Vaccount.c3292057aaaa47998ebf1c593985f1e6
p1900
sVwinPoints
p1901
I1326
sVheals
p1902
I0
sVlastWinPoints
p1903
I0
sVDBNOs
p1904
I0
sVmostDamage
p1905
I0
sVtimeSurvived
p1906
I1356
sVweaponsAcquired
p1907
I0
sVrevives
p1908
I1
sVvehicleDestroys
p1909
I0
sVrideDistance
p1910
F4223.273
sVdeathType
p1911
Vbyplayer
p1912
sVlongestKill
p1913
I0
sVkills
p1914
I0
sVteamKills
p1915
I0
sVlastKillPoints
p1916
I0
sVkillPoints
p1917
I1183
sVkillPointsDelta
p1918
F-4.27383327
sVassists
p1919
I0
sVboosts
p1920
I0
sVheadshotKills
p1921
I0
sVname
p1922
VFlatifoots
p1923
sVkillPlace
p1924
I55
sVdamageDealt
p1925
F60.3466263
sVroadKills
p1926
I0
sVkillStreaks
p1927
I0
ssg55
V51a24500-fd02-4eb7-b847-dca58f893673
p1928
sba(i__main__
Participant
p1929
(dp1930
g21
(dp1931
VwinPointsDelta
p1932
F-16.9946327
sVwinPlace
p1933
I27
sVwalkDistance
p1934
F107.31678
sVplayerId
p1935
Vaccount.ccd5e5c8e0674f3d8f100a61e61ed0bd
p1936
sVwinPoints
p1937
I1168
sVheals
p1938
I0
sVlastWinPoints
p1939
I0
sVDBNOs
p1940
I0
sVmostDamage
p1941
I0
sVtimeSurvived
p1942
I121
sVweaponsAcquired
p1943
I0
sVrevives
p1944
I0
sVvehicleDestroys
p1945
I0
sVrideDistance
p1946
I0
sVdeathType
p1947
Vbyplayer
p1948
sVlongestKill
p1949
I0
sVkills
p1950
I0
sVteamKills
p1951
I0
sVlastKillPoints
p1952
I0
sVkillPoints
p1953
I1353
sVkillPointsDelta
p1954
F-23.1993
sVassists
p1955
I0
sVboosts
p1956
I0
sVheadshotKills
p1957
I0
sVname
p1958
VTUBOK
p1959
sVkillPlace
p1960
I94
sVdamageDealt
p1961
I41
sVroadKills
p1962
I0
sVkillStreaks
p1963
I0
ssg55
V228de5f8-1c86-472e-a202-988dda6410c2
p1964
sba(i__main__
Participant
p1965
(dp1966
g21
(dp1967
VwinPointsDelta
p1968
F-4.138795
sVwinPlace
p1969
I7
sVwalkDistance
p1970
F2844.66431
sVplayerId
p1971
Vaccount.b75458739a07480ca57e9e7afb4b88da
p1972
sVwinPoints
p1973
I1578
sVheals
p1974
I0
sVlastWinPoints
p1975
I0
sVDBNOs
p1976
I2
sVmostDamage
p1977
I0
sVtimeSurvived
p1978
I1417
sVweaponsAcquired
p1979
I0
sVrevives
p1980
I0
sVvehicleDestroys
p1981
I0
sVrideDistance
p1982
F1296.718
sVdeathType
p1983
Vbyplayer
p1984
sVlongestKill
p1985
I0
sVkills
p1986
I0
sVteamKills
p1987
I0
sVlastKillPoints
p1988
I0
sVkillPoints
p1989
I1358
sVkillPointsDelta
p1990
F-9.282562
sVassists
p1991
I0
sVboosts
p1992
I2
sVheadshotKills
p1993
I0
sVname
p1994
Vdevilwalks3
p1995
sVkillPlace
p1996
I50
sVdamageDealt
p1997
F309.01947
sVroadKills
p1998
I0
sVkillStreaks
p1999
I0
ssg55
V18ced20d-434b-4dea-bd89-aaf1ed5a5ae3
p2000
sba(i__main__
Participant
p2001
(dp2002
g21
(dp2003
VwinPointsDelta
p2004
F9.891518
sVwinPlace
p2005
I9
sVwalkDistance
p2006
F3039.819
sVplayerId
p2007
Vaccount.1dc409ca4c3541c7b517719562d048f4
p2008
sVwinPoints
p2009
I1218
sVheals
p2010
I4
sVlastWinPoints
p2011
I0
sVDBNOs
p2012
I0
sVmostDamage
p2013
I0
sVtimeSurvived
p2014
I1408
sVweaponsAcquired
p2015
I0
sVrevives
p2016
I0
sVvehicleDestroys
p2017
I0
sVrideDistance
p2018
F2206.2124
sVdeathType
p2019
Vbyplayer
p2020
sVlongestKill
p2021
I0
sVkills
p2022
I0
sVteamKills
p2023
I0
sVlastKillPoints
p2024
I0
sVkillPoints
p2025
I1080
sVkillPointsDelta
p2026
F2.72875977
sVassists
p2027
I1
sVboosts
p2028
I3
sVheadshotKills
p2029
I0
sVname
p2030
VMantraPolo
p2031
sVkillPlace
p2032
I54
sVdamageDealt
p2033
F38.03071
sVroadKills
p2034
I0
sVkillStreaks
p2035
I0
ssg55
Vffb03b82-b6b9-41a2-af62-ccc19e7de0ce
p2036
sba(i__main__
Participant
p2037
(dp2038
g21
(dp2039
VwinPointsDelta
p2040
F-6.832752
sVwinPlace
p2041
I23
sVwalkDistance
p2042
F366.122223
sVplayerId
p2043
Vaccount.c7fcb465a75149119194a1a0bae8e65c
p2044
sVwinPoints
p2045
I1007
sVheals
p2046
I0
sVlastWinPoints
p2047
I0
sVDBNOs
p2048
I0
sVmostDamage
p2049
I0
sVtimeSurvived
p2050
I299
sVweaponsAcquired
p2051
I0
sVrevives
p2052
I0
sVvehicleDestroys
p2053
I0
sVrideDistance
p2054
I0
sVdeathType
p2055
Vbyplayer
p2056
sVlongestKill
p2057
I0
sVkills
p2058
I0
sVteamKills
p2059
I0
sVlastKillPoints
p2060
I0
sVkillPoints
p2061
I927
sVkillPointsDelta
p2062
F-5.48234129
sVassists
p2063
I0
sVboosts
p2064
I0
sVheadshotKills
p2065
I0
sVname
p2066
VBaileyforpope
p2067
sVkillPlace
p2068
I85
sVdamageDealt
p2069
I0
sVroadKills
p2070
I0
sVkillStreaks
p2071
I0
ssg55
Vd6c1836f-a866-4c7f-9eef-007dbbe325f9
p2072
sba(i__main__
Participant
p2073
(dp2074
g21
(dp2075
VwinPointsDelta
p2076
F2.12466431
sVwinPlace
p2077
I16
sVwalkDistance
p2078
F115.751572
sVplayerId
p2079
Vaccount.0f068fc6c546400885825cb3ca447f16
p2080
sVwinPoints
p2081
I1119
sVheals
p2082
I0
sVlastWinPoints
p2083
I0
sVDBNOs
p2084
I0
sVmostDamage
p2085
I0
sVtimeSurvived
p2086
I219
sVweaponsAcquired
p2087
I0
sVrevives
p2088
I0
sVvehicleDestroys
p2089
I0
sVrideDistance
p2090
I0
sVdeathType
p2091
Vbyplayer
p2092
sVlongestKill
p2093
I0
sVkills
p2094
I0
sVteamKills
p2095
I0
sVlastKillPoints
p2096
I0
sVkillPoints
p2097
I1052
sVkillPointsDelta
p2098
F-3.82089257
sVassists
p2099
I0
sVboosts
p2100
I0
sVheadshotKills
p2101
I0
sVname
p2102
VMikkyMo
p2103
sVkillPlace
p2104
I70
sVdamageDealt
p2105
I0
sVroadKills
p2106
I0
sVkillStreaks
p2107
I0
ssg55
V96460f50-a3a9-4b8b-bb94-bcf1a8cfec3c
p2108
sba(i__main__
Participant
p2109
(dp2110
g21
(dp2111
VwinPointsDelta
p2112
F-21.6889744
sVwinPlace
p2113
I27
sVwalkDistance
p2114
F180.844711
sVplayerId
p2115
Vaccount.6958d93bf94f42fca81a198b5728cc60
p2116
sVwinPoints
p2117
I1310
sVheals
p2118
I0
sVlastWinPoints
p2119
I0
sVDBNOs
p2120
I2
sVmostDamage
p2121
I0
sVtimeSurvived
p2122
I184
sVweaponsAcquired
p2123
I0
sVrevives
p2124
I0
sVvehicleDestroys
p2125
I0
sVrideDistance
p2126
I0
sVdeathType
p2127
Vbyplayer
p2128
sVlongestKill
p2129
I0
sVkills
p2130
I1
sVteamKills
p2131
I0
sVlastKillPoints
p2132
I0
sVkillPoints
p2133
I1467
sVkillPointsDelta
p2134
F-7.37040567
sVassists
p2135
I0
sVboosts
p2136
I0
sVheadshotKills
p2137
I0
sVname
p2138
VJoyrider
p2139
sVkillPlace
p2140
I38
sVdamageDealt
p2141
I175
sVroadKills
p2142
I0
sVkillStreaks
p2143
I0
ssg55
V6e7e3a55-58a2-443c-a91e-8537e46f1258
p2144
sba(i__main__
Participant
p2145
(dp2146
g21
(dp2147
VwinPointsDelta
p2148
F11.26991
sVwinPlace
p2149
I10
sVwalkDistance
p2150
F2319.92114
sVplayerId
p2151
Vaccount.b903eae666264a9a9f6f61a4a5dc5f0c
p2152
sVwinPoints
p2153
I1156
sVheals
p2154
I6
sVlastWinPoints
p2155
I0
sVDBNOs
p2156
I0
sVmostDamage
p2157
I0
sVtimeSurvived
p2158
I1206
sVweaponsAcquired
p2159
I0
sVrevives
p2160
I2
sVvehicleDestroys
p2161
I0
sVrideDistance
p2162
F2081.225
sVdeathType
p2163
Vbyplayer
p2164
sVlongestKill
p2165
I0
sVkills
p2166
I0
sVteamKills
p2167
I0
sVlastKillPoints
p2168
I0
sVkillPoints
p2169
I1247
sVkillPointsDelta
p2170
F-7.99208832
sVassists
p2171
I0
sVboosts
p2172
I6
sVheadshotKills
p2173
I0
sVname
p2174
VUKINNAM
p2175
sVkillPlace
p2176
I56
sVdamageDealt
p2177
F75.26196
sVroadKills
p2178
I0
sVkillStreaks
p2179
I0
ssg55
Vcac6c53e-165a-4946-9368-29028af03f3c
p2180
sba(i__main__
Participant
p2181
(dp2182
g21
(dp2183
VwinPointsDelta
p2184
F-17.87625
sVwinPlace
p2185
I22
sVwalkDistance
p2186
F487.534027
sVplayerId
p2187
Vaccount.745895e79e2942fb8830dae68a4afa5b
p2188
sVwinPoints
p2189
I1328
sVheals
p2190
I1
sVlastWinPoints
p2191
I0
sVDBNOs
p2192
I1
sVmostDamage
p2193
I0
sVtimeSurvived
p2194
I297
sVweaponsAcquired
p2195
I0
sVrevives
p2196
I0
sVvehicleDestroys
p2197
I0
sVrideDistance
p2198
I0
sVdeathType
p2199
Vbyplayer
p2200
sVlongestKill
p2201
I3
sVkills
p2202
I1
sVteamKills
p2203
I0
sVlastKillPoints
p2204
I0
sVkillPoints
p2205
I1174
sVkillPointsDelta
p2206
F8.48387
sVassists
p2207
I0
sVboosts
p2208
I0
sVheadshotKills
p2209
I1
sVname
p2210
VKellound
p2211
sVkillPlace
p2212
I35
sVdamageDealt
p2213
F74.59896
sVroadKills
p2214
I0
sVkillStreaks
p2215
I0
ssg55
V6065736c-cc3b-4ee5-b935-e641cafdf414
p2216
sba(i__main__
Participant
p2217
(dp2218
g21
(dp2219
VwinPointsDelta
p2220
F-9.662931
sVwinPlace
p2221
I26
sVwalkDistance
p2222
F230.799332
sVplayerId
p2223
Vaccount.560ab337c1d74faf8212652d7cc76799
p2224
sVwinPoints
p2225
I1000
sVheals
p2226
I0
sVlastWinPoints
p2227
I0
sVDBNOs
p2228
I0
sVmostDamage
p2229
I0
sVtimeSurvived
p2230
I199
sVweaponsAcquired
p2231
I0
sVrevives
p2232
I1
sVvehicleDestroys
p2233
I0
sVrideDistance
p2234
I0
sVdeathType
p2235
Vbyplayer
p2236
sVlongestKill
p2237
I0
sVkills
p2238
I0
sVteamKills
p2239
I0
sVlastKillPoints
p2240
I0
sVkillPoints
p2241
I1000
sVkillPointsDelta
p2242
F-9.76728249
sVassists
p2243
I0
sVboosts
p2244
I0
sVheadshotKills
p2245
I0
sVname
p2246
VBeeritoSupreme
p2247
sVkillPlace
p2248
I91
sVdamageDealt
p2249
F54.1499977
sVroadKills
p2250
I0
sVkillStreaks
p2251
I0
ssg55
Vcabb4079-4782-420a-918d-fa0c2934271d
p2252
sba(i__main__
Participant
p2253
(dp2254
g21
(dp2255
VwinPointsDelta
p2256
F21.2405758
sVwinPlace
p2257
I4
sVwalkDistance
p2258
F2436.57275
sVplayerId
p2259
Vaccount.445d04c379bc475e9e76e8aeb0587c65
p2260
sVwinPoints
p2261
I1266
sVheals
p2262
I8
sVlastWinPoints
p2263
I0
sVDBNOs
p2264
I3
sVmostDamage
p2265
I0
sVtimeSurvived
p2266
I1676
sVweaponsAcquired
p2267
I0
sVrevives
p2268
I1
sVvehicleDestroys
p2269
I0
sVrideDistance
p2270
F8203.85
sVdeathType
p2271
Vbyplayer
p2272
sVlongestKill
p2273
I18
sVkills
p2274
I3
sVteamKills
p2275
I0
sVlastKillPoints
p2276
I0
sVkillPoints
p2277
I1213
sVkillPointsDelta
p2278
F33.4264259
sVassists
p2279
I0
sVboosts
p2280
I4
sVheadshotKills
p2281
I0
sVname
p2282
VLord_Lago
p2283
sVkillPlace
p2284
I8
sVdamageDealt
p2285
F496.147247
sVroadKills
p2286
I0
sVkillStreaks
p2287
I0
ssg55
V47013de3-5808-4daf-bb07-2fb69a1c6a58
p2288
sba(i__main__
Participant
p2289
(dp2290
g21
(dp2291
VwinPointsDelta
p2292
F-6.72480774
sVwinPlace
p2293
I23
sVwalkDistance
p2294
F348.3824
sVplayerId
p2295
Vaccount.68f19dbdc9144c0880c61e46bcd5f7e0
p2296
sVwinPoints
p2297
I1030
sVheals
p2298
I0
sVlastWinPoints
p2299
I0
sVDBNOs
p2300
I0
sVmostDamage
p2301
I0
sVtimeSurvived
p2302
I348
sVweaponsAcquired
p2303
I0
sVrevives
p2304
I0
sVvehicleDestroys
p2305
I0
sVrideDistance
p2306
I0
sVdeathType
p2307
Vbyplayer
p2308
sVlongestKill
p2309
I0
sVkills
p2310
I0
sVteamKills
p2311
I0
sVlastKillPoints
p2312
I0
sVkillPoints
p2313
I1009
sVkillPointsDelta
p2314
F-7.84489536
sVassists
p2315
I0
sVboosts
p2316
I0
sVheadshotKills
p2317
I0
sVname
p2318
VSwifthaven
p2319
sVkillPlace
p2320
I84
sVdamageDealt
p2321
I0
sVroadKills
p2322
I0
sVkillStreaks
p2323
I0
ssg55
V4ae575d8-d40a-4d0a-bd8e-881d8d4c4814
p2324
sba(i__main__
Participant
p2325
(dp2326
g21
(dp2327
VwinPointsDelta
p2328
F18.8459721
sVwinPlace
p2329
I5
sVwalkDistance
p2330
F3923.58179
sVplayerId
p2331
Vaccount.763d8be1034c4688ad26ee076ebffd19
p2332
sVwinPoints
p2333
I1280
sVheals
p2334
I6
sVlastWinPoints
p2335
I0
sVDBNOs
p2336
I1
sVmostDamage
p2337
I0
sVtimeSurvived
p2338
I1649
sVweaponsAcquired
p2339
I0
sVrevives
p2340
I0
sVvehicleDestroys
p2341
I0
sVrideDistance
p2342
I0
sVdeathType
p2343
Vbyplayer
p2344
sVlongestKill
p2345
I0
sVkills
p2346
I0
sVteamKills
p2347
I0
sVlastKillPoints
p2348
I0
sVkillPoints
p2349
I1274
sVkillPointsDelta
p2350
F-0.805145264
sVassists
p2351
I0
sVboosts
p2352
I1
sVheadshotKills
p2353
I0
sVname
p2354
VJumpBones
p2355
sVkillPlace
p2356
I46
sVdamageDealt
p2357
F114.859108
sVroadKills
p2358
I0
sVkillStreaks
p2359
I0
ssg55
Ve014bb7e-4bce-4c7b-b2f9-c13577d880d0
p2360
sba(i__main__
Participant
p2361
(dp2362
g21
(dp2363
VwinPointsDelta
p2364
F3.26864123
sVwinPlace
p2365
I6
sVwalkDistance
p2366
F2598.89453
sVplayerId
p2367
Vaccount.41aaa8e9a8cb4778a6af4a99793880b6
p2368
sVwinPoints
p2369
I1478
sVheals
p2370
I18
sVlastWinPoints
p2371
I0
sVDBNOs
p2372
I1
sVmostDamage
p2373
I0
sVtimeSurvived
p2374
I1633
sVweaponsAcquired
p2375
I0
sVrevives
p2376
I0
sVvehicleDestroys
p2377
I0
sVrideDistance
p2378
F8009.07861
sVdeathType
p2379
Vbyplayer
p2380
sVlongestKill
p2381
I0
sVkills
p2382
I0
sVteamKills
p2383
I0
sVlastKillPoints
p2384
I0
sVkillPoints
p2385
I1319
sVkillPointsDelta
p2386
F-6.66685867
sVassists
p2387
I0
sVboosts
p2388
I6
sVheadshotKills
p2389
I0
sVname
p2390
VBerryJooC
p2391
sVkillPlace
p2392
I48
sVdamageDealt
p2393
F117.164764
sVroadKills
p2394
I0
sVkillStreaks
p2395
I0
ssg55
Vffc7b1c8-a3c0-4a3f-98d3-a1346f0bc7b8
p2396
sba(i__main__
Participant
p2397
(dp2398
g21
(dp2399
VwinPointsDelta
p2400
F-8.358873
sVwinPlace
p2401
I25
sVwalkDistance
p2402
F387.956177
sVplayerId
p2403
Vaccount.b9268af71a154fc687afad3a8d6c077b
p2404
sVwinPoints
p2405
I1000
sVheals
p2406
I0
sVlastWinPoints
p2407
I0
sVDBNOs
p2408
I0
sVmostDamage
p2409
I0
sVtimeSurvived
p2410
I283
sVweaponsAcquired
p2411
I0
sVrevives
p2412
I0
sVvehicleDestroys
p2413
I0
sVrideDistance
p2414
I0
sVdeathType
p2415
Vsuicide
p2416
sVlongestKill
p2417
I0
sVkills
p2418
I0
sVteamKills
p2419
I1
sVlastKillPoints
p2420
I0
sVkillPoints
p2421
I1000
sVkillPointsDelta
p2422
F-9.185637
sVassists
p2423
I0
sVboosts
p2424
I0
sVheadshotKills
p2425
I0
sVname
p2426
Vgingt12580
p2427
sVkillPlace
p2428
I89
sVdamageDealt
p2429
I100
sVroadKills
p2430
I0
sVkillStreaks
p2431
I0
ssg55
V9c7106ce-aa21-4589-89ff-bc7a641cc066
p2432
sba(i__main__
Participant
p2433
(dp2434
g21
(dp2435
VwinPointsDelta
p2436
I0
sVwinPlace
p2437
I27
sVwalkDistance
p2438
F11.4632826
sVplayerId
p2439
Vaccount.369fe68414114ca79f6af13e63134e9d
p2440
sVwinPoints
p2441
I1300
sVheals
p2442
I0
sVlastWinPoints
p2443
I0
sVDBNOs
p2444
I2
sVmostDamage
p2445
I0
sVtimeSurvived
p2446
I97
sVweaponsAcquired
p2447
I0
sVrevives
p2448
I0
sVvehicleDestroys
p2449
I0
sVrideDistance
p2450
I0
sVdeathType
p2451
Vbyplayer
p2452
sVlongestKill
p2453
I0
sVkills
p2454
I0
sVteamKills
p2455
I0
sVlastKillPoints
p2456
I0
sVkillPoints
p2457
I1238
sVkillPointsDelta
p2458
I0
sVassists
p2459
I0
sVboosts
p2460
I0
sVheadshotKills
p2461
I0
sVname
p2462
Vaka_dano
p2463
sVkillPlace
p2464
I96
sVdamageDealt
p2465
F121.118095
sVroadKills
p2466
I0
sVkillStreaks
p2467
I0
ssg55
V23fed0c3-aea2-486e-87b4-133080ea5f8e
p2468
sba(i__main__
Participant
p2469
(dp2470
g21
(dp2471
VwinPointsDelta
p2472
F-11.0615082
sVwinPlace
p2473
I18
sVwalkDistance
p2474
F541.145
sVplayerId
p2475
Vaccount.302c62672a7043b1943ca4cdc886fb5a
p2476
sVwinPoints
p2477
I1264
sVheals
p2478
I0
sVlastWinPoints
p2479
I0
sVDBNOs
p2480
I0
sVmostDamage
p2481
I0
sVtimeSurvived
p2482
I853
sVweaponsAcquired
p2483
I0
sVrevives
p2484
I0
sVvehicleDestroys
p2485
I0
sVrideDistance
p2486
F1584.659
sVdeathType
p2487
Vbyplayer
p2488
sVlongestKill
p2489
I0
sVkills
p2490
I0
sVteamKills
p2491
I0
sVlastKillPoints
p2492
I0
sVkillPoints
p2493
I1228
sVkillPointsDelta
p2494
F-11.9330006
sVassists
p2495
I0
sVboosts
p2496
I0
sVheadshotKills
p2497
I0
sVname
p2498
VSnowCrash79
p2499
sVkillPlace
p2500
I71
sVdamageDealt
p2501
I0
sVroadKills
p2502
I0
sVkillStreaks
p2503
I0
ssg55
V7e35d8b9-1a59-4741-9796-92f8df81a218
p2504
sba(i__main__
Participant
p2505
(dp2506
g21
(dp2507
VwinPointsDelta
p2508
F-27.4392147
sVwinPlace
p2509
I28
sVwalkDistance
p2510
F33.94649
sVplayerId
p2511
Vaccount.8c4f8ae81bcc4449ba3460b716ab8df4
p2512
sVwinPoints
p2513
I1502
sVheals
p2514
I0
sVlastWinPoints
p2515
I0
sVDBNOs
p2516
I1
sVmostDamage
p2517
I0
sVtimeSurvived
p2518
I121
sVweaponsAcquired
p2519
I0
sVrevives
p2520
I0
sVvehicleDestroys
p2521
I0
sVrideDistance
p2522
I0
sVdeathType
p2523
Vbyplayer
p2524
sVlongestKill
p2525
I1
sVkills
p2526
I1
sVteamKills
p2527
I0
sVlastKillPoints
p2528
I0
sVkillPoints
p2529
I1382
sVkillPointsDelta
p2530
F-5.65502644
sVassists
p2531
I0
sVboosts
p2532
I0
sVheadshotKills
p2533
I0
sVname
p2534
VNuminar
p2535
sVkillPlace
p2536
I41
sVdamageDealt
p2537
F127.075
sVroadKills
p2538
I0
sVkillStreaks
p2539
I0
ssg55
V7d809785-72aa-4618-9894-68254fa57c27
p2540
sba(i__main__
Participant
p2541
(dp2542
g21
(dp2543
VwinPointsDelta
p2544
F9.620153
sVwinPlace
p2545
I14
sVwalkDistance
p2546
F312.552643
sVplayerId
p2547
Vaccount.7904789c0fd34d9c93577253c695cb7d
p2548
sVwinPoints
p2549
I1077
sVheals
p2550
I0
sVlastWinPoints
p2551
I0
sVDBNOs
p2552
I0
sVmostDamage
p2553
I0
sVtimeSurvived
p2554
I266
sVweaponsAcquired
p2555
I0
sVrevives
p2556
I0
sVvehicleDestroys
p2557
I0
sVrideDistance
p2558
I0
sVdeathType
p2559
Vbyplayer
p2560
sVlongestKill
p2561
I0
sVkills
p2562
I0
sVteamKills
p2563
I0
sVlastKillPoints
p2564
I0
sVkillPoints
p2565
I1287
sVkillPointsDelta
p2566
F-12.568903
sVassists
p2567
I0
sVboosts
p2568
I0
sVheadshotKills
p2569
I0
sVname
p2570
VServeAxis
p2571
sVkillPlace
p2572
I64
sVdamageDealt
p2573
I0
sVroadKills
p2574
I0
sVkillStreaks
p2575
I0
ssg55
Va4b7cb3c-f65a-4f43-9040-19d62cefe583
p2576
sba(i__main__
Participant
p2577
(dp2578
g21
(dp2579
VwinPointsDelta
p2580
F-13.4501343
sVwinPlace
p2581
I18
sVwalkDistance
p2582
F325.1502
sVplayerId
p2583
Vaccount.92b473c88f474418b28a15b7f959e96c
p2584
sVwinPoints
p2585
I1356
sVheals
p2586
I0
sVlastWinPoints
p2587
I0
sVDBNOs
p2588
I0
sVmostDamage
p2589
I0
sVtimeSurvived
p2590
I261
sVweaponsAcquired
p2591
I0
sVrevives
p2592
I0
sVvehicleDestroys
p2593
I0
sVrideDistance
p2594
F294.642059
sVdeathType
p2595
Vbyplayer
p2596
sVlongestKill
p2597
I0
sVkills
p2598
I0
sVteamKills
p2599
I0
sVlastKillPoints
p2600
I0
sVkillPoints
p2601
I1209
sVkillPointsDelta
p2602
F-13.90628
sVassists
p2603
I0
sVboosts
p2604
I0
sVheadshotKills
p2605
I0
sVname
p2606
Vepicwoody
p2607
sVkillPlace
p2608
I75
sVdamageDealt
p2609
I0
sVroadKills
p2610
I0
sVkillStreaks
p2611
I0
ssg55
Vd5a0feee-ce45-4878-9a27-7ee5bf5ca4c9
p2612
sba(i__main__
Participant
p2613
(dp2614
g21
(dp2615
VwinPointsDelta
p2616
F-12.9940071
sVwinPlace
p2617
I17
sVwalkDistance
p2618
F682.327759
sVplayerId
p2619
Vaccount.ac0b19862d914760b9369af8ff14c42e
p2620
sVwinPoints
p2621
I1386
sVheals
p2622
I1
sVlastWinPoints
p2623
I0
sVDBNOs
p2624
I5
sVmostDamage
p2625
I0
sVtimeSurvived
p2626
I543
sVweaponsAcquired
p2627
I0
sVrevives
p2628
I1
sVvehicleDestroys
p2629
I0
sVrideDistance
p2630
F2542.45459
sVdeathType
p2631
Vbyplayer
p2632
sVlongestKill
p2633
I29
sVkills
p2634
I5
sVteamKills
p2635
I0
sVlastKillPoints
p2636
I0
sVkillPoints
p2637
I1582
sVkillPointsDelta
p2638
F13.2836533
sVassists
p2639
I0
sVboosts
p2640
I2
sVheadshotKills
p2641
I3
sVname
p2642
VJattBrar
p2643
sVkillPlace
p2644
I5
sVdamageDealt
p2645
F417.2813
sVroadKills
p2646
I0
sVkillStreaks
p2647
I0
ssg55
V7cf1dfd4-355f-4309-85f3-d77b596d856d
p2648
sba(i__main__
Participant
p2649
(dp2650
g21
(dp2651
VwinPointsDelta
p2652
F46.78485
sVwinPlace
p2653
I3
sVwalkDistance
p2654
F3272.63281
sVplayerId
p2655
Vaccount.b93f363456694749ac11ecaff659c125
p2656
sVwinPoints
p2657
I1000
sVheals
p2658
I1
sVlastWinPoints
p2659
I0
sVDBNOs
p2660
I1
sVmostDamage
p2661
I0
sVtimeSurvived
p2662
I1753
sVweaponsAcquired
p2663
I0
sVrevives
p2664
I0
sVvehicleDestroys
p2665
I0
sVrideDistance
p2666
F4725.285
sVdeathType
p2667
Vbyplayer
p2668
sVlongestKill
p2669
I30
sVkills
p2670
I1
sVteamKills
p2671
I0
sVlastKillPoints
p2672
I0
sVkillPoints
p2673
I1000
sVkillPointsDelta
p2674
F37.69395
sVassists
p2675
I1
sVboosts
p2676
I4
sVheadshotKills
p2677
I0
sVname
p2678
VVolto_
p2679
sVkillPlace
p2680
I14
sVdamageDealt
p2681
F255.417831
sVroadKills
p2682
I0
sVkillStreaks
p2683
I0
ssg55
Vfdb3b2f3-d688-46d8-945e-dc7fa642d1d6
p2684
sba(i__main__
Participant
p2685
(dp2686
g21
(dp2687
VwinPointsDelta
p2688
F-8.919838
sVwinPlace
p2689
I25
sVwalkDistance
p2690
F391.0848
sVplayerId
p2691
Vaccount.a585e3d21dad4beaac074dd61f429ac2
p2692
sVwinPoints
p2693
I1029
sVheals
p2694
I0
sVlastWinPoints
p2695
I0
sVDBNOs
p2696
I0
sVmostDamage
p2697
I0
sVtimeSurvived
p2698
I267
sVweaponsAcquired
p2699
I0
sVrevives
p2700
I0
sVvehicleDestroys
p2701
I0
sVrideDistance
p2702
I0
sVdeathType
p2703
Vbyplayer
p2704
sVlongestKill
p2705
I0
sVkills
p2706
I0
sVteamKills
p2707
I0
sVlastKillPoints
p2708
I0
sVkillPoints
p2709
I1038
sVkillPointsDelta
p2710
F-11.0915356
sVassists
p2711
I0
sVboosts
p2712
I0
sVheadshotKills
p2713
I0
sVname
p2714
VKetros
p2715
sVkillPlace
p2716
I90
sVdamageDealt
p2717
I0
sVroadKills
p2718
I0
sVkillStreaks
p2719
I0
ssg55
V9c8b2d36-84f0-4e76-a0ec-faea82705f59
p2720
sba(i__main__
Participant
p2721
(dp2722
g21
(dp2723
VwinPointsDelta
p2724
F54.1221924
sVwinPlace
p2725
I2
sVwalkDistance
p2726
F3427.941
sVplayerId
p2727
Vaccount.2534640a10ed4dccaebc830b02dce94d
p2728
sVwinPoints
p2729
I1017
sVheals
p2730
I0
sVlastWinPoints
p2731
I0
sVDBNOs
p2732
I1
sVmostDamage
p2733
I0
sVtimeSurvived
p2734
I1350
sVweaponsAcquired
p2735
I0
sVrevives
p2736
I0
sVvehicleDestroys
p2737
I0
sVrideDistance
p2738
I0
sVdeathType
p2739
Vbyplayer
p2740
sVlongestKill
p2741
I0
sVkills
p2742
I0
sVteamKills
p2743
I0
sVlastKillPoints
p2744
I0
sVkillPoints
p2745
I1045
sVkillPointsDelta
p2746
F8.576179
sVassists
p2747
I0
sVboosts
p2748
I1
sVheadshotKills
p2749
I0
sVname
p2750
VScotty702
p2751
sVkillPlace
p2752
I44
sVdamageDealt
p2753
F143.170013
sVroadKills
p2754
I0
sVkillStreaks
p2755
I0
ssg55
Vb94ea8ec-ab62-42d6-a14c-d23241e18b73
p2756
sba(i__main__
Participant
p2757
(dp2758
g21
(dp2759
VwinPointsDelta
p2760
F-9.766502
sVwinPlace
p2761
I19
sVwalkDistance
p2762
F785.3055
sVplayerId
p2763
Vaccount.4df2661b316a42f0a03c82ac26a3b709
p2764
sVwinPoints
p2765
I1214
sVheals
p2766
I2
sVlastWinPoints
p2767
I0
sVDBNOs
p2768
I3
sVmostDamage
p2769
I0
sVtimeSurvived
p2770
I481
sVweaponsAcquired
p2771
I0
sVrevives
p2772
I0
sVvehicleDestroys
p2773
I0
sVrideDistance
p2774
I0
sVdeathType
p2775
Vbyplayer
p2776
sVlongestKill
p2777
I70
sVkills
p2778
I3
sVteamKills
p2779
I0
sVlastKillPoints
p2780
I0
sVkillPoints
p2781
I1311
sVkillPointsDelta
p2782
F20.4893932
sVassists
p2783
I0
sVboosts
p2784
I1
sVheadshotKills
p2785
I0
sVname
p2786
VProdigalGaming
p2787
sVkillPlace
p2788
I11
sVdamageDealt
p2789
F313.107056
sVroadKills
p2790
I0
sVkillStreaks
p2791
I0
ssg55
V2f1208d9-eb68-44fe-a88f-8033d989adad
p2792
sba(i__main__
Participant
p2793
(dp2794
g21
(dp2795
VwinPointsDelta
p2796
F-13.8937454
sVwinPlace
p2797
I17
sVwalkDistance
p2798
F692.2757
sVplayerId
p2799
Vaccount.884598a1e5a548e7af5f46f71c60e735
p2800
sVwinPoints
p2801
I1417
sVheals
p2802
I5
sVlastWinPoints
p2803
I0
sVDBNOs
p2804
I1
sVmostDamage
p2805
I0
sVtimeSurvived
p2806
I578
sVweaponsAcquired
p2807
I0
sVrevives
p2808
I1
sVvehicleDestroys
p2809
I0
sVrideDistance
p2810
F2572.88477
sVdeathType
p2811
Vsuicide
p2812
sVlongestKill
p2813
I60
sVkills
p2814
I5
sVteamKills
p2815
I1
sVlastKillPoints
p2816
I0
sVkillPoints
p2817
I1663
sVkillPointsDelta
p2818
F10.46451
sVassists
p2819
I3
sVboosts
p2820
I1
sVheadshotKills
p2821
I1
sVname
p2822
VDaddyOG1
p2823
sVkillPlace
p2824
I4
sVdamageDealt
p2825
F520.2781
sVroadKills
p2826
I0
sVkillStreaks
p2827
I0
ssg55
V5eb6094a-1331-4ff7-9373-715b5c5ae314
p2828
sba(i__main__
Participant
p2829
(dp2830
g21
(dp2831
VwinPointsDelta
p2832
F-11.986763
sVwinPlace
p2833
I17
sVwalkDistance
p2834
F262.853882
sVplayerId
p2835
Vaccount.c52c78b8e4ca460c86bbd9066cf6e57c
p2836
sVwinPoints
p2837
I1354
sVheals
p2838
I5
sVlastWinPoints
p2839
I0
sVDBNOs
p2840
I0
sVmostDamage
p2841
I0
sVtimeSurvived
p2842
I411
sVweaponsAcquired
p2843
I0
sVrevives
p2844
I0
sVvehicleDestroys
p2845
I0
sVrideDistance
p2846
F2462.402
sVdeathType
p2847
Vbyplayer
p2848
sVlongestKill
p2849
I10
sVkills
p2850
I1
sVteamKills
p2851
I0
sVlastKillPoints
p2852
I0
sVkillPoints
p2853
I1245
sVkillPointsDelta
p2854
F11.1424894
sVassists
p2855
I1
sVboosts
p2856
I0
sVheadshotKills
p2857
I0
sVname
p2858
VPro-at-Camping
p2859
sVkillPlace
p2860
I27
sVdamageDealt
p2861
F89.22
sVroadKills
p2862
I0
sVkillStreaks
p2863
I0
ssg55
V1c279c8f-c85b-491d-9b02-5455595246ea
p2864
sba(i__main__
Participant
p2865
(dp2866
g21
(dp2867
VwinPointsDelta
p2868
F-4.184278
sVwinPlace
p2869
I21
sVwalkDistance
p2870
F319.34082
sVplayerId
p2871
Vaccount.43f0ed02ac17452a83f24c9d9c7ae01c
p2872
sVwinPoints
p2873
I1025
sVheals
p2874
I0
sVlastWinPoints
p2875
I0
sVDBNOs
p2876
I0
sVmostDamage
p2877
I0
sVtimeSurvived
p2878
I371
sVweaponsAcquired
p2879
I0
sVrevives
p2880
I0
sVvehicleDestroys
p2881
I0
sVrideDistance
p2882
I0
sVdeathType
p2883
Vbyplayer
p2884
sVlongestKill
p2885
I0
sVkills
p2886
I0
sVteamKills
p2887
I0
sVlastKillPoints
p2888
I0
sVkillPoints
p2889
I998
sVkillPointsDelta
p2890
F-5.690291
sVassists
p2891
I0
sVboosts
p2892
I0
sVheadshotKills
p2893
I0
sVname
p2894
Vawastewife
p2895
sVkillPlace
p2896
I79
sVdamageDealt
p2897
I0
sVroadKills
p2898
I0
sVkillStreaks
p2899
I0
ssg55
Vc51d5b2f-7ccc-456d-9304-b92622ad1f19
p2900
sba(i__main__
Participant
p2901
(dp2902
g21
(dp2903
VwinPointsDelta
p2904
F22.3093662
sVwinPlace
p2905
I9
sVwalkDistance
p2906
F3400.653
sVplayerId
p2907
Vaccount.e918a2a90348467fb7f3fbb923afb75f
p2908
sVwinPoints
p2909
I1000
sVheals
p2910
I2
sVlastWinPoints
p2911
I0
sVDBNOs
p2912
I0
sVmostDamage
p2913
I0
sVtimeSurvived
p2914
I1408
sVweaponsAcquired
p2915
I0
sVrevives
p2916
I0
sVvehicleDestroys
p2917
I0
sVrideDistance
p2918
F1812.10535
sVdeathType
p2919
Vbyplayer
p2920
sVlongestKill
p2921
I0
sVkills
p2922
I0
sVteamKills
p2923
I0
sVlastKillPoints
p2924
I0
sVkillPoints
p2925
I1000
sVkillPointsDelta
p2926
F7.22215271
sVassists
p2927
I0
sVboosts
p2928
I1
sVheadshotKills
p2929
I0
sVname
p2930
VVaulting
p2931
sVkillPlace
p2932
I53
sVdamageDealt
p2933
F95.7156448
sVroadKills
p2934
I0
sVkillStreaks
p2935
I0
ssg55
V6a75fd9f-c63b-4080-9d45-f47489e4cb16
p2936
sba(i__main__
Participant
p2937
(dp2938
g21
(dp2939
VwinPointsDelta
p2940
F-2.4276123
sVwinPlace
p2941
I15
sVwalkDistance
p2942
F744.0415
sVplayerId
p2943
Vaccount.5c784a44297845009b9694f7ee858860
p2944
sVwinPoints
p2945
I1268
sVheals
p2946
I1
sVlastWinPoints
p2947
I0
sVDBNOs
p2948
I1
sVmostDamage
p2949
I0
sVtimeSurvived
p2950
I761
sVweaponsAcquired
p2951
I0
sVrevives
p2952
I1
sVvehicleDestroys
p2953
I0
sVrideDistance
p2954
F7575.13574
sVdeathType
p2955
Vbyplayer
p2956
sVlongestKill
p2957
I0
sVkills
p2958
I0
sVteamKills
p2959
I0
sVlastKillPoints
p2960
I0
sVkillPoints
p2961
I1371
sVkillPointsDelta
p2962
F-16.24069
sVassists
p2963
I0
sVboosts
p2964
I0
sVheadshotKills
p2965
I0
sVname
p2966
VKevdog25
p2967
sVkillPlace
p2968
I66
sVdamageDealt
p2969
F143.083023
sVroadKills
p2970
I0
sVkillStreaks
p2971
I0
ssg55
V8106687c-11d1-4a27-a2a4-3181e11edf89
p2972
sba(i__main__
Participant
p2973
(dp2974
g21
(dp2975
VwinPointsDelta
p2976
F-10.2257805
sVwinPlace
p2977
I18
sVwalkDistance
p2978
F464.8182
sVplayerId
p2979
Vaccount.a8d94a8966c94f83bd72cd1ee31439db
p2980
sVwinPoints
p2981
I1273
sVheals
p2982
I0
sVlastWinPoints
p2983
I0
sVDBNOs
p2984
I0
sVmostDamage
p2985
I0
sVtimeSurvived
p2986
I518
sVweaponsAcquired
p2987
I0
sVrevives
p2988
I0
sVvehicleDestroys
p2989
I0
sVrideDistance
p2990
F2100.18872
sVdeathType
p2991
Vbyplayer
p2992
sVlongestKill
p2993
I0
sVkills
p2994
I0
sVteamKills
p2995
I0
sVlastKillPoints
p2996
I0
sVkillPoints
p2997
I1251
sVkillPointsDelta
p2998
F-13.213686
sVassists
p2999
I0
sVboosts
p3000
I0
sVheadshotKills
p3001
I0
sVname
p3002
VArtfldodger
p3003
sVkillPlace
p3004
I72
sVdamageDealt
p3005
F5.15233564
sVroadKills
p3006
I0
sVkillStreaks
p3007
I0
ssg55
V8da3e7a2-551f-406c-ae9a-760390c2520f
p3008
sba(i__main__
Participant
p3009
(dp3010
g21
(dp3011
VwinPointsDelta
p3012
F-15.1716871
sVwinPlace
p3013
I27
sVwalkDistance
p3014
F22.83621
sVplayerId
p3015
Vaccount.2522b4c66cc043879e25ce353cd8330a
p3016
sVwinPoints
p3017
I1114
sVheals
p3018
I0
sVlastWinPoints
p3019
I0
sVDBNOs
p3020
I0
sVmostDamage
p3021
I0
sVtimeSurvived
p3022
I109
sVweaponsAcquired
p3023
I0
sVrevives
p3024
I0
sVvehicleDestroys
p3025
I0
sVrideDistance
p3026
I0
sVdeathType
p3027
Vbyplayer
p3028
sVlongestKill
p3029
I0
sVkills
p3030
I0
sVteamKills
p3031
I0
sVlastKillPoints
p3032
I0
sVkillPoints
p3033
I996
sVkillPointsDelta
p3034
F-11.0091724
sVassists
p3035
I0
sVboosts
p3036
I0
sVheadshotKills
p3037
I0
sVname
p3038
VIbbs
p3039
sVkillPlace
p3040
I95
sVdamageDealt
p3041
F77.36564
sVroadKills
p3042
I0
sVkillStreaks
p3043
I0
ssg55
V2e1a1b8f-e7df-4be3-9450-c3d272f111ff
p3044
sba(i__main__
Participant
p3045
(dp3046
g21
(dp3047
VwinPointsDelta
p3048
F5.70904827
sVwinPlace
p3049
I6
sVwalkDistance
p3050
F2271.08252
sVplayerId
p3051
Vaccount.f4f8735151874a4596e7d83c2da2a33c
p3052
sVwinPoints
p3053
I1414
sVheals
p3054
I12
sVlastWinPoints
p3055
I0
sVDBNOs
p3056
I2
sVmostDamage
p3057
I0
sVtimeSurvived
p3058
I1593
sVweaponsAcquired
p3059
I0
sVrevives
p3060
I1
sVvehicleDestroys
p3061
I0
sVrideDistance
p3062
F9384.9
sVdeathType
p3063
Vbyplayer
p3064
sVlongestKill
p3065
I154
sVkills
p3066
I3
sVteamKills
p3067
I0
sVlastKillPoints
p3068
I0
sVkillPoints
p3069
I1357
sVkillPointsDelta
p3070
F20.1803188
sVassists
p3071
I0
sVboosts
p3072
I5
sVheadshotKills
p3073
I0
sVname
p3074
VBRYANIC
p3075
sVkillPlace
p3076
I9
sVdamageDealt
p3077
F296.9648
sVroadKills
p3078
I0
sVkillStreaks
p3079
I0
ssg55
Vd9068617-3e7b-46c3-9ebf-fd8522cd3e86
p3080
sba(i__main__
Participant
p3081
(dp3082
g21
(dp3083
VwinPointsDelta
p3084
F-15.8879633
sVwinPlace
p3085
I24
sVwalkDistance
p3086
F401.17804
sVplayerId
p3087
Vaccount.520c942a0aff4a9e8d348d708fa167af
p3088
sVwinPoints
p3089
I1213
sVheals
p3090
I0
sVlastWinPoints
p3091
I0
sVDBNOs
p3092
I0
sVmostDamage
p3093
I0
sVtimeSurvived
p3094
I262
sVweaponsAcquired
p3095
I0
sVrevives
p3096
I0
sVvehicleDestroys
p3097
I0
sVrideDistance
p3098
I0
sVdeathType
p3099
Vbyplayer
p3100
sVlongestKill
p3101
I0
sVkills
p3102
I0
sVteamKills
p3103
I0
sVlastKillPoints
p3104
I0
sVkillPoints
p3105
I1347
sVkillPointsDelta
p3106
F-22.41453
sVassists
p3107
I0
sVboosts
p3108
I1
sVheadshotKills
p3109
I0
sVname
p3110
VCodaguy
p3111
sVkillPlace
p3112
I88
sVdamageDealt
p3113
I0
sVroadKills
p3114
I0
sVkillStreaks
p3115
I0
ssg55
V0ed192be-07d5-4cba-8e81-fd1f7ff1351c
p3116
sba(i__main__
Participant
p3117
(dp3118
g21
(dp3119
VwinPointsDelta
p3120
F46.4041252
sVwinPlace
p3121
I2
sVwalkDistance
p3122
F4518.831
sVplayerId
p3123
Vaccount.3ad04fd48ea4490b87a1134c36594000
p3124
sVwinPoints
p3125
I1005
sVheals
p3126
I1
sVlastWinPoints
p3127
I0
sVDBNOs
p3128
I2
sVmostDamage
p3129
I0
sVtimeSurvived
p3130
I1613
sVweaponsAcquired
p3131
I0
sVrevives
p3132
I1
sVvehicleDestroys
p3133
I0
sVrideDistance
p3134
I0
sVdeathType
p3135
Vbyplayer
p3136
sVlongestKill
p3137
I73
sVkills
p3138
I4
sVteamKills
p3139
I0
sVlastKillPoints
p3140
I0
sVkillPoints
p3141
I1054
sVkillPointsDelta
p3142
F49.0676041
sVassists
p3143
I3
sVboosts
p3144
I2
sVheadshotKills
p3145
I1
sVname
p3146
Vsherry56
p3147
sVkillPlace
p3148
I6
sVdamageDealt
p3149
F378.333466
sVroadKills
p3150
I0
sVkillStreaks
p3151
I0
ssg55
V7829f4f1-0e94-4aa4-bc74-3e8a1202cdb5
p3152
sba(i__main__
Participant
p3153
(dp3154
g21
(dp3155
VwinPointsDelta
p3156
F-8.697354
sVwinPlace
p3157
I26
sVwalkDistance
p3158
F219.013657
sVplayerId
p3159
Vaccount.c1252e765386463faa2f9b9db564ffa5
p3160
sVwinPoints
p3161
I999
sVheals
p3162
I0
sVlastWinPoints
p3163
I0
sVDBNOs
p3164
I1
sVmostDamage
p3165
I0
sVtimeSurvived
p3166
I191
sVweaponsAcquired
p3167
I0
sVrevives
p3168
I0
sVvehicleDestroys
p3169
I0
sVrideDistance
p3170
I0
sVdeathType
p3171
Vbyplayer
p3172
sVlongestKill
p3173
I0
sVkills
p3174
I0
sVteamKills
p3175
I0
sVlastKillPoints
p3176
I0
sVkillPoints
p3177
I1046
sVkillPointsDelta
p3178
F-11.5890846
sVassists
p3179
I0
sVboosts
p3180
I0
sVheadshotKills
p3181
I0
sVname
p3182
VRetribuke
p3183
sVkillPlace
p3184
I92
sVdamageDealt
p3185
F50.9739952
sVroadKills
p3186
I0
sVkillStreaks
p3187
I0
ssg55
V342688ac-9077-465d-b174-77ffdaafdf1b
p3188
sba(i__main__
Participant
p3189
(dp3190
g21
(dp3191
VwinPointsDelta
p3192
F40.3532028
sVwinPlace
p3193
I3
sVwalkDistance
p3194
F220.288712
sVplayerId
p3195
Vaccount.589cb902309b45639e6357b22718da4c
p3196
sVwinPoints
p3197
I1000
sVheals
p3198
I0
sVlastWinPoints
p3199
I0
sVDBNOs
p3200
I1
sVmostDamage
p3201
I0
sVtimeSurvived
p3202
I299
sVweaponsAcquired
p3203
I0
sVrevives
p3204
I0
sVvehicleDestroys
p3205
I0
sVrideDistance
p3206
I0
sVdeathType
p3207
Vbyplayer
p3208
sVlongestKill
p3209
I3
sVkills
p3210
I1
sVteamKills
p3211
I0
sVlastKillPoints
p3212
I0
sVkillPoints
p3213
I1000
sVkillPointsDelta
p3214
F35.8100777
sVassists
p3215
I1
sVboosts
p3216
I0
sVheadshotKills
p3217
I0
sVname
p3218
VHarry2568
p3219
sVkillPlace
p3220
I16
sVdamageDealt
p3221
F112.88
sVroadKills
p3222
I0
sVkillStreaks
p3223
I0
ssg55
V3a693935-d7ec-4dfa-ac53-ec2a71ee5bf0
p3224
sba(i__main__
Participant
p3225
(dp3226
g21
(dp3227
VwinPointsDelta
p3228
F15.6985922
sVwinPlace
p3229
I5
sVwalkDistance
p3230
F3967.23413
sVplayerId
p3231
Vaccount.bc51fdfcf11a4f98bee07a25d07f73a4
p3232
sVwinPoints
p3233
I1318
sVheals
p3234
I0
sVlastWinPoints
p3235
I0
sVDBNOs
p3236
I0
sVmostDamage
p3237
I0
sVtimeSurvived
p3238
I1621
sVweaponsAcquired
p3239
I0
sVrevives
p3240
I2
sVvehicleDestroys
p3241
I0
sVrideDistance
p3242
I0
sVdeathType
p3243
Vbyplayer
p3244
sVlongestKill
p3245
I0
sVkills
p3246
I0
sVteamKills
p3247
I0
sVlastKillPoints
p3248
I0
sVkillPoints
p3249
I1212
sVkillPointsDelta
p3250
F1.743975
sVassists
p3251
I0
sVboosts
p3252
I1
sVheadshotKills
p3253
I0
sVname
p3254
VPablo_Gonzalo
p3255
sVkillPlace
p3256
I47
sVdamageDealt
p3257
I0
sVroadKills
p3258
I0
sVkillStreaks
p3259
I0
ssg55
V73d7dee8-4eb5-4215-a2db-3deadba5282e
p3260
sba(i__main__
Participant
p3261
(dp3262
g21
(dp3263
VwinPointsDelta
p3264
F43.645607
sVwinPlace
p3265
I3
sVwalkDistance
p3266
F3553.90845
sVplayerId
p3267
Vaccount.546f0c9c8d044827ad6520ed77a0fad2
p3268
sVwinPoints
p3269
I1000
sVheals
p3270
I4
sVlastWinPoints
p3271
I0
sVDBNOs
p3272
I0
sVmostDamage
p3273
I0
sVtimeSurvived
p3274
I1753
sVweaponsAcquired
p3275
I0
sVrevives
p3276
I1
sVvehicleDestroys
p3277
I0
sVrideDistance
p3278
F4730.01
sVdeathType
p3279
Vbyplayer
p3280
sVlongestKill
p3281
I12
sVkills
p3282
I1
sVteamKills
p3283
I0
sVlastKillPoints
p3284
I0
sVkillPoints
p3285
I1000
sVkillPointsDelta
p3286
F36.74766
sVassists
p3287
I0
sVboosts
p3288
I3
sVheadshotKills
p3289
I0
sVname
p3290
VSxtanist
p3291
sVkillPlace
p3292
I15
sVdamageDealt
p3293
F201.91127
sVroadKills
p3294
I0
sVkillStreaks
p3295
I0
ssg55
V428cbf60-e196-46d3-bc1f-f63bde56dcd3
p3296
sba(i__main__
Participant
p3297
(dp3298
g21
(dp3299
VwinPointsDelta
p3300
F52.0398979
sVwinPlace
p3301
I1
sVwalkDistance
p3302
F118.802582
sVplayerId
p3303
Vaccount.c39a0662cc25487bb21562c193f903b1
p3304
sVwinPoints
p3305
I1111
sVheals
p3306
I0
sVlastWinPoints
p3307
I0
sVDBNOs
p3308
I0
sVmostDamage
p3309
I0
sVtimeSurvived
p3310
I117
sVweaponsAcquired
p3311
I0
sVrevives
p3312
I0
sVvehicleDestroys
p3313
I0
sVrideDistance
p3314
I0
sVdeathType
p3315
Vbyplayer
p3316
sVlongestKill
p3317
I0
sVkills
p3318
I0
sVteamKills
p3319
I0
sVlastKillPoints
p3320
I0
sVkillPoints
p3321
I1049
sVkillPointsDelta
p3322
F10.8694134
sVassists
p3323
I0
sVboosts
p3324
I0
sVheadshotKills
p3325
I0
sVname
p3326
VToetag50
p3327
sVkillPlace
p3328
I43
sVdamageDealt
p3329
I0
sVroadKills
p3330
I0
sVkillStreaks
p3331
I0
ssg55
Vaba9bac2-6237-4598-88a8-e45a4eacb028
p3332
sba(i__main__
Participant
p3333
(dp3334
g21
(dp3335
VwinPointsDelta
p3336
F18.205389
sVwinPlace
p3337
I10
sVwalkDistance
p3338
F2097.98486
sVplayerId
p3339
Vaccount.ce3637a7e6a147d18e552fa48469f045
p3340
sVwinPoints
p3341
I1057
sVheals
p3342
I3
sVlastWinPoints
p3343
I0
sVDBNOs
p3344
I0
sVmostDamage
p3345
I0
sVtimeSurvived
p3346
I1125
sVweaponsAcquired
p3347
I0
sVrevives
p3348
I0
sVvehicleDestroys
p3349
I0
sVrideDistance
p3350
F2080.534
sVdeathType
p3351
Vbyplayer
p3352
sVlongestKill
p3353
I0
sVkills
p3354
I0
sVteamKills
p3355
I0
sVlastKillPoints
p3356
I0
sVkillPoints
p3357
I990
sVkillPointsDelta
p3358
F5.291367
sVassists
p3359
I0
sVboosts
p3360
I4
sVheadshotKills
p3361
I0
sVname
p3362
VSvenDGreat
p3363
sVkillPlace
p3364
I57
sVdamageDealt
p3365
F26.8912144
sVroadKills
p3366
I0
sVkillStreaks
p3367
I0
ssg55
V68738995-e764-4fa8-a8c2-815ec5ff7237
p3368
sba(i__main__
Participant
p3369
(dp3370
g21
(dp3371
VwinPointsDelta
p3372
F4.828602
sVwinPlace
p3373
I18
sVwalkDistance
p3374
F1066.481
sVplayerId
p3375
Vaccount.fa155e02b3c74ae1b917e95dd53b8361
p3376
sVwinPoints
p3377
I1000
sVheals
p3378
I0
sVlastWinPoints
p3379
I0
sVDBNOs
p3380
I1
sVmostDamage
p3381
I0
sVtimeSurvived
p3382
I548
sVweaponsAcquired
p3383
I0
sVrevives
p3384
I0
sVvehicleDestroys
p3385
I0
sVrideDistance
p3386
I0
sVdeathType
p3387
Vbyplayer
p3388
sVlongestKill
p3389
I20
sVkills
p3390
I1
sVteamKills
p3391
I0
sVlastKillPoints
p3392
I0
sVkillPoints
p3393
I1000
sVkillPointsDelta
p3394
F25.4170265
sVassists
p3395
I0
sVboosts
p3396
I0
sVheadshotKills
p3397
I1
sVname
p3398
Vvicentis
p3399
sVkillPlace
p3400
I28
sVdamageDealt
p3401
F6.433113
sVroadKills
p3402
I0
sVkillStreaks
p3403
I0
ssg55
Vea3686f6-3c60-413b-9aa3-1b275b72761b
p3404
sba(i__main__
Participant
p3405
(dp3406
g21
(dp3407
VwinPointsDelta
p3408
F3.95277047
sVwinPlace
p3409
I18
sVwalkDistance
p3410
F847.495056
sVplayerId
p3411
Vaccount.6d2d1563a49248dc9fa44bb346348f58
p3412
sVwinPoints
p3413
I1031
sVheals
p3414
I0
sVlastWinPoints
p3415
I0
sVDBNOs
p3416
I1
sVmostDamage
p3417
I0
sVtimeSurvived
p3418
I428
sVweaponsAcquired
p3419
I0
sVrevives
p3420
I0
sVvehicleDestroys
p3421
I0
sVrideDistance
p3422
I0
sVdeathType
p3423
Vbyplayer
p3424
sVlongestKill
p3425
I72
sVkills
p3426
I1
sVteamKills
p3427
I0
sVlastKillPoints
p3428
I0
sVkillPoints
p3429
I1045
sVkillPointsDelta
p3430
F21.2800884
sVassists
p3431
I0
sVboosts
p3432
I0
sVheadshotKills
p3433
I0
sVname
p3434
VPapoca
p3435
sVkillPlace
p3436
I30
sVdamageDealt
p3437
I100
sVroadKills
p3438
I0
sVkillStreaks
p3439
I0
ssg55
V5504d013-d0f6-4159-8827-8c02d64cb3e8
p3440
sba(i__main__
Participant
p3441
(dp3442
g21
(dp3443
VwinPointsDelta
p3444
F1.01311016
sVwinPlace
p3445
I18
sVwalkDistance
p3446
F702.7523
sVplayerId
p3447
Vaccount.226982e3546b459db71aed535f8685e5
p3448
sVwinPoints
p3449
I1071
sVheals
p3450
I0
sVlastWinPoints
p3451
I0
sVDBNOs
p3452
I1
sVmostDamage
p3453
I0
sVtimeSurvived
p3454
I439
sVweaponsAcquired
p3455
I0
sVrevives
p3456
I0
sVvehicleDestroys
p3457
I0
sVrideDistance
p3458
I0
sVdeathType
p3459
Vbyplayer
p3460
sVlongestKill
p3461
I0
sVkills
p3462
I0
sVteamKills
p3463
I0
sVlastKillPoints
p3464
I0
sVkillPoints
p3465
I1131
sVkillPointsDelta
p3466
F-9.21916
sVassists
p3467
I2
sVboosts
p3468
I0
sVheadshotKills
p3469
I0
sVname
p3470
VPLK-Kymo
p3471
sVkillPlace
p3472
I73
sVdamageDealt
p3473
F89.787
sVroadKills
p3474
I0
sVkillStreaks
p3475
I0
ssg55
Vc0b1a7a6-3deb-40eb-a7a8-b209e12c66e5
p3476
sba(i__main__
Participant
p3477
(dp3478
g21
(dp3479
VwinPointsDelta
p3480
F-7.40957
sVwinPlace
p3481
I19
sVwalkDistance
p3482
F51.0264435
sVplayerId
p3483
Vaccount.26755bd27f9341a2ba4b5a53a4af5d68
p3484
sVwinPoints
p3485
I1162
sVheals
p3486
I0
sVlastWinPoints
p3487
I0
sVDBNOs
p3488
I0
sVmostDamage
p3489
I0
sVtimeSurvived
p3490
I174
sVweaponsAcquired
p3491
I0
sVrevives
p3492
I0
sVvehicleDestroys
p3493
I0
sVrideDistance
p3494
F540.123657
sVdeathType
p3495
Vbyplayer
p3496
sVlongestKill
p3497
I0
sVkills
p3498
I0
sVteamKills
p3499
I0
sVlastKillPoints
p3500
I0
sVkillPoints
p3501
I1127
sVkillPointsDelta
p3502
F-9.635238
sVassists
p3503
I0
sVboosts
p3504
I0
sVheadshotKills
p3505
I0
sVname
p3506
VMcCoy1414
p3507
sVkillPlace
p3508
I76
sVdamageDealt
p3509
F105.041039
sVroadKills
p3510
I0
sVkillStreaks
p3511
I0
ssg55
V65e5619a-40c1-4d42-a88e-75f778f6f780
p3512
sba(i__main__
Participant
p3513
(dp3514
g21
(dp3515
VwinPointsDelta
p3516
F14.3688507
sVwinPlace
p3517
I8
sVwalkDistance
p3518
F2093.15649
sVplayerId
p3519
Vaccount.0b2e01db5ea54a7eaadf01aceabadc13
p3520
sVwinPoints
p3521
I1205
sVheals
p3522
I0
sVlastWinPoints
p3523
I0
sVDBNOs
p3524
I0
sVmostDamage
p3525
I0
sVtimeSurvived
p3526
I1296
sVweaponsAcquired
p3527
I0
sVrevives
p3528
I1
sVvehicleDestroys
p3529
I0
sVrideDistance
p3530
F3294.43384
sVdeathType
p3531
Vbyplayer
p3532
sVlongestKill
p3533
I0
sVkills
p3534
I0
sVteamKills
p3535
I0
sVlastKillPoints
p3536
I0
sVkillPoints
p3537
I1057
sVkillPointsDelta
p3538
F4.06962633
sVassists
p3539
I0
sVboosts
p3540
I0
sVheadshotKills
p3541
I0
sVname
p3542
Vmcgrubbles
p3543
sVkillPlace
p3544
I52
sVdamageDealt
p3545
F11.7070532
sVroadKills
p3546
I0
sVkillStreaks
p3547
I0
ssg55
Va70490b5-fcb8-44a6-8a68-08b242dca7c3
p3548
sbatp3549
Rp3550
sS'Duration'
p3551
I1807
sS'Teams'
p3552
g17
((lp3553
(i__main__
Team
p3554
(dp3555
S'TeamNumber'
p3556
I14
sS'Won'
p3557
Vfalse
p3558
sg55
Ve78b87ba-32fe-409a-8c4c-d6dfce65bfad
p3559
sS'Rank'
p3560
I2
sg16
g17
((lp3561
Vbd70c7ac-4647-4cd7-aa06-a9657355d6a6
p3562
aVb94ea8ec-ab62-42d6-a14c-d23241e18b73
p3563
aV48947dc1-6df0-4824-ad15-3c9edd6083fd
p3564
aV7829f4f1-0e94-4aa4-bc74-3e8a1202cdb5
p3565
atp3566
Rp3567
sba(i__main__
Team
p3568
(dp3569
g3556
I5
sg3557
Vfalse
p3570
sg55
V594dfb10-cbf3-46a7-a1a7-5ddd1c28563f
p3571
sg3560
I8
sg16
g17
((lp3572
Ve7e3279c-a939-4c29-87a2-e315149802c5
p3573
aVa70490b5-fcb8-44a6-8a68-08b242dca7c3
p3574
aV73aed084-2033-45a2-9ecb-4685e09aa75f
p3575
aV51a24500-fd02-4eb7-b847-dca58f893673
p3576
atp3577
Rp3578
sba(i__main__
Team
p3579
(dp3580
g3556
I7
sg3557
Vfalse
p3581
sg55
V4a6a6249-0a83-4006-bf95-e939d48b2883
p3582
sg3560
I23
sg16
g17
((lp3583
Vd6c1836f-a866-4c7f-9eef-007dbbe325f9
p3584
aV2a06f0c5-75c6-4ddc-b410-5880099a09c0
p3585
aV2952cec5-adc9-48eb-91b7-7397c87c98be
p3586
aV4ae575d8-d40a-4d0a-bd8e-881d8d4c4814
p3587
atp3588
Rp3589
sba(i__main__
Team
p3590
(dp3591
g3556
I26
sg3557
Vfalse
p3592
sg55
V93bbd8dd-b417-4f64-b3fd-5e05aae82940
p3593
sg3560
I27
sg16
g17
((lp3594
V6e7e3a55-58a2-443c-a91e-8537e46f1258
p3595
aV2e1a1b8f-e7df-4be3-9450-c3d272f111ff
p3596
aV23fed0c3-aea2-486e-87b4-133080ea5f8e
p3597
aV228de5f8-1c86-472e-a202-988dda6410c2
p3598
atp3599
Rp3600
sba(i__main__
Team
p3601
(dp3602
g3556
I10
sg3557
Vfalse
p3603
sg55
V6935c933-fb18-4484-9ffb-facf66d22623
p3604
sg3560
I24
sg16
g17
((lp3605
Vf78fe48b-98b8-4db8-b7cb-0b88adfe3594
p3606
aV774501b9-07d9-4b1e-891a-87eeb0a9b1ea
p3607
aVa56511f9-0db4-4779-a346-c79fff9cf991
p3608
aV0ed192be-07d5-4cba-8e81-fd1f7ff1351c
p3609
atp3610
Rp3611
sba(i__main__
Team
p3612
(dp3613
g3556
I3
sg3557
Vtrue
p3614
sg55
V2ca1360a-a0e4-4d8a-9188-2fbc77c23b60
p3615
sg3560
I1
sg16
g17
((lp3616
Vaba9bac2-6237-4598-88a8-e45a4eacb028
p3617
aV1af27b69-afe3-4bae-824b-5cb8350e3cdd
p3618
aV82d175f8-34c1-4a17-ba86-be1080d80f6f
p3619
aVbbdc7279-a032-4385-aad0-adffec9df3e0
p3620
atp3621
Rp3622
sba(i__main__
Team
p3623
(dp3624
g3556
I18
sg3557
Vfalse
p3625
sg55
V2aead32c-b1d5-494b-a6ba-0a97e97d8e92
p3626
sg3560
I28
sg16
g17
((lp3627
Vc44f8db9-02b1-4e73-b926-a6bfb5cb5582
p3628
aV904c612c-16d8-40b2-8cac-23d5feda73e5
p3629
aVaac283dd-e399-4c15-a694-05dca0a980ae
p3630
aVf850525f-32a8-4a69-9799-9a0def334418
p3631
atp3632
Rp3633
sba(i__main__
Team
p3634
(dp3635
g3556
I1
sg3557
Vfalse
p3636
sg55
V1ebebc51-4dfa-45f8-aeb6-f26b26c058e5
p3637
sg3560
I9
sg16
g17
((lp3638
V6a75fd9f-c63b-4080-9d45-f47489e4cb16
p3639
aVffb03b82-b6b9-41a2-af62-ccc19e7de0ce
p3640
aV20ad7121-0a89-4b49-b3d8-ce6ab04ad788
p3641
aVe31a7683-7ad8-4ef9-b698-221dd5f5fb21
p3642
atp3643
Rp3644
sba(i__main__
Team
p3645
(dp3646
g3556
I21
sg3557
Vfalse
p3647
sg55
V9684f508-5c91-4a2a-8812-eafa5aad437c
p3648
sg3560
I12
sg16
g17
((lp3649
V0410bad0-9f02-45b3-a9a6-b17f59f03f21
p3650
aV42178118-faa2-49c8-8cc4-be28d7d73e63
p3651
aV7ce009c5-d5ff-4945-b891-5ce1839b6f95
p3652
atp3653
Rp3654
sba(i__main__
Team
p3655
(dp3656
g3556
I23
sg3557
Vfalse
p3657
sg55
V92d172c5-ccf3-4852-be31-748450ee51ed
p3658
sg3560
I20
sg16
g17
((lp3659
V278eef5b-274b-4a19-9a3c-5fdb6f24ce36
p3660
aV4e0856e7-a2c9-4985-a35e-a2a7ff50d093
p3661
aV7866613c-3046-4f68-9400-6272b9cc4778
p3662
atp3663
Rp3664
sba(i__main__
Team
p3665
(dp3666
g3556
I25
sg3557
Vfalse
p3667
sg55
V1c1877b3-a846-4c8b-a8fc-37b625c69e6d
p3668
sg3560
I3
sg16
g17
((lp3669
V428cbf60-e196-46d3-bc1f-f63bde56dcd3
p3670
aVfdb3b2f3-d688-46d8-945e-dc7fa642d1d6
p3671
aV3a693935-d7ec-4dfa-ac53-ec2a71ee5bf0
p3672
atp3673
Rp3674
sba(i__main__
Team
p3675
(dp3676
g3556
I20
sg3557
Vfalse
p3677
sg55
Ve86c7c25-b5a0-4e31-b065-ec27d3afa98c
p3678
sg3560
I25
sg16
g17
((lp3679
V9c7106ce-aa21-4589-89ff-bc7a641cc066
p3680
atp3681
Rp3682
sba(i__main__
Team
p3683
(dp3684
g3556
I6
sg3557
Vfalse
p3685
sg55
V5df861e5-cb35-4b7b-9d2c-48515a0a1b9f
p3686
sg3560
I22
sg16
g17
((lp3687
V6065736c-cc3b-4ee5-b935-e641cafdf414
p3688
aV27bd22cf-8939-4ea8-80a9-af25037580d9
p3689
aV50c1ac6b-9ae8-4231-be51-511e68f928d3
p3690
aV7604aa39-ccd3-4796-9e8e-1a0d70cd70b7
p3691
atp3692
Rp3693
sba(i__main__
Team
p3694
(dp3695
g3556
I28
sg3557
Vfalse
p3696
sg55
Vbcef6db0-2914-4980-b3ba-526a545a4eda
p3697
sg3560
I19
sg16
g17
((lp3698
V0770a01b-23be-48fb-a0ce-aa27d022bc49
p3699
aV65e5619a-40c1-4d42-a88e-75f778f6f780
p3700
aV2f1208d9-eb68-44fe-a88f-8033d989adad
p3701
aV5789d567-84cd-40d9-907a-64c5051b8b1a
p3702
atp3703
Rp3704
sba(i__main__
Team
p3705
(dp3706
g3556
I11
sg3557
Vfalse
p3707
sg55
V6266ea23-b2c5-46b5-8129-2e735cd9ec93
p3708
sg3560
I10
sg16
g17
((lp3709
Vcac6c53e-165a-4946-9368-29028af03f3c
p3710
aV618a0e39-c6bd-4db3-bb6f-68473c7f364b
p3711
aV0824266a-18a2-45e1-b782-aaf691bafe21
p3712
aV68738995-e764-4fa8-a8c2-815ec5ff7237
p3713
atp3714
Rp3715
sba(i__main__
Team
p3716
(dp3717
g3556
I15
sg3557
Vfalse
p3718
sg55
V4365c7d9-900a-4908-8022-0a5163a89680
p3719
sg3560
I28
sg16
g17
((lp3720
V7d809785-72aa-4618-9894-68254fa57c27
p3721
aV7cf1dfd4-355f-4309-85f3-d77b596d856d
p3722
aV5eb6094a-1331-4ff7-9373-715b5c5ae314
p3723
aV1c279c8f-c85b-491d-9b02-5455595246ea
p3724
atp3725
Rp3726
sba(i__main__
Team
p3727
(dp3728
g3556
I24
sg3557
Vfalse
p3729
sg55
V35bdd39e-ca06-4b9d-882c-ea68c908bf3f
p3730
sg3560
I15
sg16
g17
((lp3731
V8106687c-11d1-4a27-a2a4-3181e11edf89
p3732
aV9fcd9011-84dd-4197-8dd4-eadd1bff8ab0
p3733
aVfc920595-fe02-41ca-9381-dcea67a676d6
p3734
aVc17cbd60-8c30-4bc6-bfad-844144107fd8
p3735
atp3736
Rp3737
sba(i__main__
Team
p3738
(dp3739
g3556
I4
sg3557
Vfalse
p3740
sg55
V7619528e-56ea-440c-8dc0-9e3063f39600
p3741
sg3560
I5
sg16
g17
((lp3742
Ve014bb7e-4bce-4c7b-b2f9-c13577d880d0
p3743
aV73d7dee8-4eb5-4215-a2db-3deadba5282e
p3744
aV30ade223-2042-4e48-abb9-2ef27f403326
p3745
atp3746
Rp3747
sba(i__main__
Team
p3748
(dp3749
g3556
I9
sg3557
Vfalse
p3750
sg55
Vb823d080-b3d7-429a-886d-7d1bd09a25e4
p3751
sg3560
I4
sg16
g17
((lp3752
V02c56b28-fdb5-4de6-a035-2e5a001c899d
p3753
aV47013de3-5808-4daf-bb07-2fb69a1c6a58
p3754
aVa35258b4-5478-4694-8971-d5fe6641ec74
p3755
aV73c3e3e1-f045-4301-b7bb-cfd820d107c3
p3756
atp3757
Rp3758
sba(i__main__
Team
p3759
(dp3760
g3556
I17
sg3557
Vfalse
p3761
sg55
V4ca968b6-83d9-4b21-be14-0d2827cf92a1
p3762
sg3560
I18
sg16
g17
((lp3763
V7e35d8b9-1a59-4741-9796-92f8df81a218
p3764
aVd5a0feee-ce45-4878-9a27-7ee5bf5ca4c9
p3765
aV8da3e7a2-551f-406c-ae9a-760390c2520f
p3766
aV1455de65-796d-43ae-a604-52aa0e199afe
p3767
atp3768
Rp3769
sba(i__main__
Team
p3770
(dp3771
g3556
I12
sg3557
Vfalse
p3772
sg55
V0be971f5-3961-4e05-a9a1-76dca6b5f2b5
p3773
sg3560
I14
sg16
g17
((lp3774
Va4b7cb3c-f65a-4f43-9040-19d62cefe583
p3775
aVc3b7b971-b1b3-4d77-bb29-491837d7fc8a
p3776
aV9c8b2d36-84f0-4e76-a0ec-faea82705f59
p3777
atp3778
Rp3779
sba(i__main__
Team
p3780
(dp3781
g3556
I22
sg3557
Vfalse
p3782
sg55
Vad0660a4-e518-4d47-980f-1f661b65521b
p3783
sg3560
I6
sg16
g17
((lp3784
Vffc7b1c8-a3c0-4a3f-98d3-a1346f0bc7b8
p3785
aVd9068617-3e7b-46c3-9ebf-fd8522cd3e86
p3786
aVf8d8391b-56f9-44e3-a86d-c610d94390ca
p3787
atp3788
Rp3789
sba(i__main__
Team
p3790
(dp3791
g3556
I13
sg3557
Vfalse
p3792
sg55
V92572a86-21ac-42f3-a7ec-4586435c4899
p3793
sg3560
I16
sg16
g17
((lp3794
V96460f50-a3a9-4b8b-bb94-bcf1a8cfec3c
p3795
aV8235cc86-be70-4056-8a6b-0350267884b3
p3796
aV8f217e0b-153f-4e1c-8738-7a586efafe03
p3797
aVcf841262-508f-4197-a9d7-1696ba69b278
p3798
atp3799
Rp3800
sba(i__main__
Team
p3801
(dp3802
g3556
I2
sg3557
Vfalse
p3803
sg55
V35cb07f2-7bac-4a8d-ae76-2261e4caffdb
p3804
sg3560
I18
sg16
g17
((lp3805
V7207a6e1-71b0-4796-84e1-db841035bada
p3806
aV18ced20d-434b-4dea-bd89-aaf1ed5a5ae3
p3807
aV295573dd-d772-4836-b3ce-5179f0bb84c6
p3808
aVfb045a08-9c24-49cb-8f2e-3cafdeec4954
p3809
atp3810
Rp3811
sba(i__main__
Team
p3812
(dp3813
g3556
I27
sg3557
Vfalse
p3814
sg55
V8e272211-6036-411d-9509-4d6faa83ae57
p3815
sg3560
I18
sg16
g17
((lp3816
V5504d013-d0f6-4159-8827-8c02d64cb3e8
p3817
aVea3686f6-3c60-413b-9aa3-1b275b72761b
p3818
aVc0b1a7a6-3deb-40eb-a7a8-b209e12c66e5
p3819
atp3820
Rp3821
sba(i__main__
Team
p3822
(dp3823
g3556
I8
sg3557
Vfalse
p3824
sg55
V64811208-c131-4863-a2c6-b015b3953dfe
p3825
sg3560
I11
sg16
g17
((lp3826
V5e028716-addc-4f7e-a13f-9d63abfebd44
p3827
aV47333c72-4b28-4590-82c3-a0acbbf00764
p3828
aV38ea1db7-6296-4d02-b18e-69c8a11a8c7a
p3829
atp3830
Rp3831
sba(i__main__
Team
p3832
(dp3833
g3556
I16
sg3557
Vfalse
p3834
sg55
V20cb48b0-fefd-4cd0-b4dc-22a462a5b9c6
p3835
sg3560
I21
sg16
g17
((lp3836
Vc51d5b2f-7ccc-456d-9304-b92622ad1f19
p3837
atp3838
Rp3839
sba(i__main__
Team
p3840
(dp3841
g3556
I19
sg3557
Vfalse
p3842
sg55
Va30ca0f0-1635-4abf-bc24-ba916f088199
p3843
sg3560
I26
sg16
g17
((lp3844
Vb8f211bf-504d-4644-b73b-27a9873615c8
p3845
aVd4ea7bfb-a19c-4719-a04f-57da7eb64398
p3846
aV342688ac-9077-465d-b174-77ffdaafdf1b
p3847
aVcabb4079-4782-420a-918d-fa0c2934271d
p3848
atp3849
Rp3850
sbatp3851
Rp3852
sg55
V47cfdd22-f969-47ee-8e2f-e16d7c90c141
p3853
sS'CreatedAt'
p3854
cdatetime
datetime
p3855
(S'\x07\xe2\x04\x15\x02\x038\x00\x00\x00'
p3856
ccopy_reg
_reconstructor
p3857
(cdateutil.tz
tzutc
p3858
cdatetime
tzinfo
p3859
g3859
(tRp3860
tp3861
Rp3862
tp3863
Rp3864
sbssS'Players'
p3865
(dp3866
S'Kevdog25'
p3867
(i__main__
Player
p3868
(dp3869
g21
NsS'Name'
p3870
VKevdog25
p3871
sg1
g17
((lp3872
V979bbd2a-7aa2-4c95-abb8-b721cb1139d7
p3873
aV4159bad3-d0e8-4f76-97b3-e0a1d767139a
p3874
aV7bc3afb2-1326-4349-af85-17d63a70ed45
p3875
aVaf70e43e-23f4-48ba-bcc7-6cad805fb190
p3876
aVebac137c-e55a-49a3-81f7-3739e3e8bf70
p3877
aV2060faac-c0e7-495d-b4e2-71466eac0553
p3878
aV4223fd15-0e67-4f2d-b50d-db3f07e78a1d
p3879
aV8591539b-fba1-4ec8-a7f1-e93e7086b76c
p3880
aVd54cf334-708e-44ba-96b4-86f7affc2e1f
p3881
aV1bba6c06-fe9d-4471-83a4-8f3b76e5ac29
p3882
aV4ac73fa2-d129-4830-a7a2-31bb75c77569
p3883
aV90e474d7-276e-4fe6-9539-6eeea724cd60
p3884
aVf6119ccd-9002-4c2d-8825-2e0083c87e58
p3885
aV0e7f06a4-4a92-4c4f-b362-01c1e43f45c4
p3886
aV0bf6c23a-da0e-4ea6-85be-32b35099725b
p3887
aV95159b5e-7584-4b4b-8a86-afeb824933b9
p3888
aVb8bab198-b969-4bee-9d41-32a43ef2791a
p3889
aV4d097223-ba3c-4c30-8a8f-3e4ee7607323
p3890
aV82061602-ce7c-45d4-bfb5-37542e689cc9
p3891
aV728e3c39-330a-4e1b-86c7-ab03b29908c9
p3892
aVa4663e17-bc83-4c3c-92ee-805d096177a6
p3893
aVa021c4d2-3261-4529-aacd-1185fd936945
p3894
aV17166885-46a4-4641-ba86-109a5c48a671
p3895
aVd340f261-e9eb-4039-8875-eaca4b27847c
p3896
aV78b71892-1f50-40d4-a1be-7526714c8e4e
p3897
aVe5fa646a-884b-4cea-9e69-4f9d494d6f5f
p3898
aVddc73ebb-6c12-4979-b070-1bccb8296eef
p3899
aVd844883c-a66c-48b1-8fe1-999035480237
p3900
aV5354c4a3-927e-4652-a0c5-825e2d329fe0
p3901
aV157c1c17-0cbd-4213-a7c6-1277e9eb0363
p3902
aV38dcd353-3b60-4239-8080-5fdd8bc0e52c
p3903
aV270f53fc-928b-4909-8d2e-60afabfdf99c
p3904
aV8a8383cb-fb1e-4262-a6b9-f649215569d2
p3905
aVa0fc30b7-8702-44d9-9905-7ed063bb9776
p3906
aV068be56f-2245-4618-8e3a-b6e93f5fb3f4
p3907
aV2eff4ddb-99c7-4e33-b3c2-7363debde5e2
p3908
aVe899c286-8cbf-4c5b-ac64-4066b7340b47
p3909
aV9642ce5b-22a6-4a47-9cf8-7e75887c522e
p3910
aV5a43014b-3f26-4a49-88d5-0a94da4fcff9
p3911
aVc36fdf7a-8ea0-4aa2-8b4c-643cd2cb329b
p3912
aVaa2ef855-0b3d-41ee-93bb-dc68001c9866
p3913
aV73bce013-e50a-4cbd-a2cc-6f877214cfdf
p3914
aV9aa046c8-5bd2-44a0-beb1-00f9365b9817
p3915
aVc9e97c06-5baf-474d-ac26-3781f370a9be
p3916
aVd054ed7a-02d2-45f6-8aa0-bba4cdf91027
p3917
aVa20926f3-e531-4579-ac8a-ab9e7c59ef99
p3918
aVa0f9b4d2-9d6c-43db-a098-6f24b15b900e
p3919
aVefa9a7a7-f2b7-4aae-99ef-e5f926faf75d
p3920
aV0b3e5ac6-95c0-48b3-89d7-eb15c8b8d6b0
p3921
aVf8855a78-8122-4913-b430-da1f4d1a6446
p3922
aV00bc4e4e-1512-4c84-bf91-34f628b917bc
p3923
aV1c56ec71-b9c0-4e4b-9051-1f2b53324476
p3924
aVf5f9b348-583e-4fbb-ade5-bd1fd43b22c3
p3925
aV6ba7588f-b255-4b2b-b2ad-ef86cc36291b
p3926
aVe744cf1a-5725-4f4c-b17e-d5dace59a15f
p3927
aVbdbec34d-b558-435d-920d-01df87394c09
p3928
aVf8e4af92-d875-4e8a-ae02-f58ba1d5c465
p3929
aV0805f52b-48d1-423c-afed-78ffc6818a5d
p3930
aV77b1ed93-d466-48c2-8e88-ca8a93efc189
p3931
aV995a28ac-2bca-4c10-8782-85b330472cd7
p3932
aV48a5b797-7370-4c06-b5e8-2ec9a39d74b9
p3933
aV025266e5-4a2c-468d-93eb-211504b5eaae
p3934
aVf6dcde72-cb62-4896-8ac3-defd505ebb11
p3935
aV74f50582-257f-4ad8-b20b-105aa724419f
p3936
ag3
atp3937
Rp3938
sS'PatchVersion'
p3939
V
p3940
sS'QueryTime'
p3941
F1525317611.656
sg6
Vpc-na
p3942
sS'UpdatedAt'
p3943
g3855
(S'\x07\xe2\x04\x07\x16\x15\x16\x00\x00\x00'
p3944
g3857
(g3858
g3859
g3859
(tRp3945
tp3946
Rp3947
tp3948
Rp3949
sg55
Vaccount.5c784a44297845009b9694f7ee858860
p3950
sg3854
g3855
(S'\x07\xe2\x04\x07\x16\x15\x16\x00\x00\x00'
p3951
g3857
(g3858
g3859
g3859
(tRp3952
tp3953
Rp3954
tp3955
Rp3956
sbssS'Telemetry'
p3957
(dp3958
s.